Archive member included to satisfy reference by file (symbol)

/opt/Atollic_TrueSTUDIO_for_STM32_x86_64_9.3.0/ARMTools/bin/../lib/gcc/arm-atollic-eabi/6.3.1/../../../../arm-atollic-eabi/lib/armv7e-m/fpu/libc_nano.a(lib_a-init.o)
                              src/startup_stm32f411xe.o (__libc_init_array)
/opt/Atollic_TrueSTUDIO_for_STM32_x86_64_9.3.0/ARMTools/bin/../lib/gcc/arm-atollic-eabi/6.3.1/../../../../arm-atollic-eabi/lib/armv7e-m/fpu/libc_nano.a(lib_a-strlen.o)
                              src/tiny_printf.o (strlen)
/opt/Atollic_TrueSTUDIO_for_STM32_x86_64_9.3.0/ARMTools/bin/../lib/gcc/arm-atollic-eabi/6.3.1/../../../../arm-atollic-eabi/lib/armv7e-m/fpu/libnosys.a(write.o)
                              src/tiny_printf.o (_write)
/opt/Atollic_TrueSTUDIO_for_STM32_x86_64_9.3.0/ARMTools/bin/../lib/gcc/arm-atollic-eabi/6.3.1/../../../../arm-atollic-eabi/lib/armv7e-m/fpu/libnosys.a(errno.o)
                              /opt/Atollic_TrueSTUDIO_for_STM32_x86_64_9.3.0/ARMTools/bin/../lib/gcc/arm-atollic-eabi/6.3.1/../../../../arm-atollic-eabi/lib/armv7e-m/fpu/libnosys.a(write.o) (errno)

Allocating common symbols
Common symbol       size              file

errno               0x4               /opt/Atollic_TrueSTUDIO_for_STM32_x86_64_9.3.0/ARMTools/bin/../lib/gcc/arm-atollic-eabi/6.3.1/../../../../arm-atollic-eabi/lib/armv7e-m/fpu/libnosys.a(errno.o)
TimingDelay         0x4               src/main.o

Memory Configuration

Name             Origin             Length             Attributes
FLASH            0x0000000008000000 0x0000000000080000 xr
RAM              0x0000000020000000 0x0000000000020000 xrw
MEMORY_B1        0x0000000060000000 0x0000000000000000 xr
*default*        0x0000000000000000 0xffffffffffffffff

Linker script and memory map

LOAD /opt/Atollic_TrueSTUDIO_for_STM32_x86_64_9.3.0/ARMTools/bin/../lib/gcc/arm-atollic-eabi/6.3.1/armv7e-m/fpu/crti.o
LOAD /opt/Atollic_TrueSTUDIO_for_STM32_x86_64_9.3.0/ARMTools/bin/../lib/gcc/arm-atollic-eabi/6.3.1/armv7e-m/fpu/crtbegin.o
LOAD Drivers/STM32F4xx_StdPeriph_Driver/src/misc.o
LOAD Drivers/STM32F4xx_StdPeriph_Driver/src/stm32f4xx_adc.o
LOAD Drivers/STM32F4xx_StdPeriph_Driver/src/stm32f4xx_can.o
LOAD Drivers/STM32F4xx_StdPeriph_Driver/src/stm32f4xx_crc.o
LOAD Drivers/STM32F4xx_StdPeriph_Driver/src/stm32f4xx_cryp.o
LOAD Drivers/STM32F4xx_StdPeriph_Driver/src/stm32f4xx_cryp_aes.o
LOAD Drivers/STM32F4xx_StdPeriph_Driver/src/stm32f4xx_cryp_des.o
LOAD Drivers/STM32F4xx_StdPeriph_Driver/src/stm32f4xx_cryp_tdes.o
LOAD Drivers/STM32F4xx_StdPeriph_Driver/src/stm32f4xx_dac.o
LOAD Drivers/STM32F4xx_StdPeriph_Driver/src/stm32f4xx_dbgmcu.o
LOAD Drivers/STM32F4xx_StdPeriph_Driver/src/stm32f4xx_dcmi.o
LOAD Drivers/STM32F4xx_StdPeriph_Driver/src/stm32f4xx_dma.o
LOAD Drivers/STM32F4xx_StdPeriph_Driver/src/stm32f4xx_exti.o
LOAD Drivers/STM32F4xx_StdPeriph_Driver/src/stm32f4xx_flash.o
LOAD Drivers/STM32F4xx_StdPeriph_Driver/src/stm32f4xx_fsmc.o
LOAD Drivers/STM32F4xx_StdPeriph_Driver/src/stm32f4xx_gpio.o
LOAD Drivers/STM32F4xx_StdPeriph_Driver/src/stm32f4xx_hash.o
LOAD Drivers/STM32F4xx_StdPeriph_Driver/src/stm32f4xx_hash_md5.o
LOAD Drivers/STM32F4xx_StdPeriph_Driver/src/stm32f4xx_hash_sha1.o
LOAD Drivers/STM32F4xx_StdPeriph_Driver/src/stm32f4xx_i2c.o
LOAD Drivers/STM32F4xx_StdPeriph_Driver/src/stm32f4xx_iwdg.o
LOAD Drivers/STM32F4xx_StdPeriph_Driver/src/stm32f4xx_pwr.o
LOAD Drivers/STM32F4xx_StdPeriph_Driver/src/stm32f4xx_rcc.o
LOAD Drivers/STM32F4xx_StdPeriph_Driver/src/stm32f4xx_rng.o
LOAD Drivers/STM32F4xx_StdPeriph_Driver/src/stm32f4xx_rtc.o
LOAD Drivers/STM32F4xx_StdPeriph_Driver/src/stm32f4xx_sdio.o
LOAD Drivers/STM32F4xx_StdPeriph_Driver/src/stm32f4xx_spi.o
LOAD Drivers/STM32F4xx_StdPeriph_Driver/src/stm32f4xx_syscfg.o
LOAD Drivers/STM32F4xx_StdPeriph_Driver/src/stm32f4xx_tim.o
LOAD Drivers/STM32F4xx_StdPeriph_Driver/src/stm32f4xx_usart.o
LOAD Drivers/STM32F4xx_StdPeriph_Driver/src/stm32f4xx_wwdg.o
LOAD src/main.o
LOAD src/startup_stm32f411xe.o
LOAD src/stm32f4xx_it.o
LOAD src/system_stm32f4xx.o
LOAD src/tiny_printf.o
                0x0000000000000080                malloc_getpagesize_P = 0x80
START GROUP
LOAD /opt/Atollic_TrueSTUDIO_for_STM32_x86_64_9.3.0/ARMTools/bin/../lib/gcc/arm-atollic-eabi/6.3.1/../../../../arm-atollic-eabi/lib/armv7e-m/fpu/libc_nano.a
LOAD /opt/Atollic_TrueSTUDIO_for_STM32_x86_64_9.3.0/ARMTools/bin/../lib/gcc/arm-atollic-eabi/6.3.1/../../../../arm-atollic-eabi/lib/armv7e-m/fpu/libm.a
END GROUP
START GROUP
LOAD /opt/Atollic_TrueSTUDIO_for_STM32_x86_64_9.3.0/ARMTools/bin/../lib/gcc/arm-atollic-eabi/6.3.1/armv7e-m/fpu/libgcc.a
LOAD /opt/Atollic_TrueSTUDIO_for_STM32_x86_64_9.3.0/ARMTools/bin/../lib/gcc/arm-atollic-eabi/6.3.1/../../../../arm-atollic-eabi/lib/armv7e-m/fpu/libc_nano.a
END GROUP
START GROUP
LOAD /opt/Atollic_TrueSTUDIO_for_STM32_x86_64_9.3.0/ARMTools/bin/../lib/gcc/arm-atollic-eabi/6.3.1/armv7e-m/fpu/libgcc.a
LOAD /opt/Atollic_TrueSTUDIO_for_STM32_x86_64_9.3.0/ARMTools/bin/../lib/gcc/arm-atollic-eabi/6.3.1/../../../../arm-atollic-eabi/lib/armv7e-m/fpu/libc_nano.a
LOAD /opt/Atollic_TrueSTUDIO_for_STM32_x86_64_9.3.0/ARMTools/bin/../lib/gcc/arm-atollic-eabi/6.3.1/../../../../arm-atollic-eabi/lib/armv7e-m/fpu/libnosys.a
END GROUP
START GROUP
LOAD /opt/Atollic_TrueSTUDIO_for_STM32_x86_64_9.3.0/ARMTools/bin/../lib/gcc/arm-atollic-eabi/6.3.1/armv7e-m/fpu/libgcc.a
LOAD /opt/Atollic_TrueSTUDIO_for_STM32_x86_64_9.3.0/ARMTools/bin/../lib/gcc/arm-atollic-eabi/6.3.1/../../../../arm-atollic-eabi/lib/armv7e-m/fpu/libc_nano.a
LOAD /opt/Atollic_TrueSTUDIO_for_STM32_x86_64_9.3.0/ARMTools/bin/../lib/gcc/arm-atollic-eabi/6.3.1/../../../../arm-atollic-eabi/lib/armv7e-m/fpu/libnosys.a
END GROUP
LOAD /opt/Atollic_TrueSTUDIO_for_STM32_x86_64_9.3.0/ARMTools/bin/../lib/gcc/arm-atollic-eabi/6.3.1/armv7e-m/fpu/crtend.o
LOAD /opt/Atollic_TrueSTUDIO_for_STM32_x86_64_9.3.0/ARMTools/bin/../lib/gcc/arm-atollic-eabi/6.3.1/armv7e-m/fpu/crtn.o
                0x0000000020020000                _estack = 0x20020000
                0x0000000000000000                _Min_Heap_Size = 0x0
                0x0000000000000400                _Min_Stack_Size = 0x400

.isr_vector     0x0000000008000000      0x198
                0x0000000008000000                . = ALIGN (0x4)
 *(.isr_vector)
 .isr_vector    0x0000000008000000      0x198 src/startup_stm32f411xe.o
                0x0000000008000000                g_pfnVectors
                0x0000000008000198                . = ALIGN (0x4)

.text           0x0000000008000198     0xecfc
                0x0000000008000198                . = ALIGN (0x4)
 *(.text)
 .text          0x0000000008000198        0x0 /opt/Atollic_TrueSTUDIO_for_STM32_x86_64_9.3.0/ARMTools/bin/../lib/gcc/arm-atollic-eabi/6.3.1/armv7e-m/fpu/crti.o
 .text          0x0000000008000198       0x40 /opt/Atollic_TrueSTUDIO_for_STM32_x86_64_9.3.0/ARMTools/bin/../lib/gcc/arm-atollic-eabi/6.3.1/armv7e-m/fpu/crtbegin.o
 .text          0x00000000080001d8      0x194 Drivers/STM32F4xx_StdPeriph_Driver/src/misc.o
                0x00000000080001d8                NVIC_PriorityGroupConfig
                0x0000000008000200                NVIC_Init
                0x00000000080002c4                NVIC_SetVectorTable
                0x00000000080002f0                NVIC_SystemLPConfig
                0x0000000008000334                SysTick_CLKSourceConfig
 .text          0x000000000800036c      0xa9c Drivers/STM32F4xx_StdPeriph_Driver/src/stm32f4xx_adc.o
                0x000000000800036c                ADC_DeInit
                0x0000000008000388                ADC_Init
                0x0000000008000434                ADC_StructInit
                0x0000000008000472                ADC_CommonInit
                0x00000000080004c4                ADC_CommonStructInit
                0x00000000080004f0                ADC_Cmd
                0x0000000008000528                ADC_AnalogWatchdogCmd
                0x0000000008000562                ADC_AnalogWatchdogThresholdsConfig
                0x000000000800058a                ADC_AnalogWatchdogSingleChannelConfig
                0x00000000080005c2                ADC_TempSensorVrefintCmd
                0x00000000080005fc                ADC_VBATCmd
                0x0000000008000638                ADC_RegularChannelConfig
                0x00000000080007cc                ADC_SoftwareStartConv
                0x00000000080007ec                ADC_GetSoftwareStartConvStatus
                0x000000000800081c                ADC_EOCOnEachRegularChannelCmd
                0x0000000008000854                ADC_ContinuousModeCmd
                0x000000000800088c                ADC_DiscModeChannelCountConfig
                0x00000000080008d0                ADC_DiscModeCmd
                0x0000000008000908                ADC_GetConversionValue
                0x0000000008000922                ADC_GetMultiModeConversionValue
                0x0000000008000938                ADC_DMACmd
                0x0000000008000970                ADC_DMARequestAfterLastTransferCmd
                0x00000000080009a8                ADC_MultiModeDMARequestAfterLastTransferCmd
                0x00000000080009e4                ADC_InjectedChannelConfig
                0x0000000008000b06                ADC_InjectedSequencerLengthConfig
                0x0000000008000b4a                ADC_SetInjectedOffset
                0x0000000008000b7e                ADC_ExternalTrigInjectedConvConfig
                0x0000000008000bb4                ADC_ExternalTrigInjectedConvEdgeConfig
                0x0000000008000bea                ADC_SoftwareStartInjectedConv
                0x0000000008000c0a                ADC_GetSoftwareStartInjectedConvCmdStatus
                0x0000000008000c3a                ADC_AutoInjectedConvCmd
                0x0000000008000c72                ADC_InjectedDiscModeCmd
                0x0000000008000caa                ADC_GetInjectedConversionValue
                0x0000000008000cda                ADC_ITConfig
                0x0000000008000d2c                ADC_GetFlagStatus
                0x0000000008000d60                ADC_ClearFlag
                0x0000000008000d80                ADC_GetITStatus
                0x0000000008000ddc                ADC_ClearITPendingBit
 .text          0x0000000008000e08      0xfc0 Drivers/STM32F4xx_StdPeriph_Driver/src/stm32f4xx_can.o
                0x0000000008000e08                CAN_DeInit
                0x0000000008000e50                CAN_Init
                0x0000000008000ff2                CAN_FilterInit
                0x0000000008001168                CAN_StructInit
                0x00000000080011be                CAN_SlaveStartBank
                0x0000000008001220                CAN_DBGFreeze
                0x0000000008001258                CAN_TTComModeCmd
                0x00000000080012f0                CAN_Transmit
                0x000000000800148c                CAN_TransmitStatus
                0x0000000008001560                CAN_CancelTransmit
                0x00000000080015b2                CAN_Receive
                0x000000000800172e                CAN_FIFORelease
                0x0000000008001766                CAN_MessagePending
                0x00000000080017b0                CAN_OperatingModeRequest
                0x00000000080018ac                CAN_Sleep
                0x00000000080018e6                CAN_WakeUp
                0x000000000800193c                CAN_GetLastErrorCode
                0x0000000008001962                CAN_GetReceiveErrorCounter
                0x0000000008001984                CAN_GetLSBTransmitErrorCounter
                0x00000000080019a6                CAN_ITConfig
                0x00000000080019e2                CAN_GetFlagStatus
                0x0000000008001ab0                CAN_ClearFlag
                0x0000000008001b24                CAN_GetITStatus
                0x0000000008001cb8                CAN_ClearITPendingBit
 .text          0x0000000008001dc8       0xd0 Drivers/STM32F4xx_StdPeriph_Driver/src/stm32f4xx_crc.o
                0x0000000008001dc8                CRC_ResetDR
                0x0000000008001de0                CRC_CalcCRC
                0x0000000008001e04                CRC_CalcBlockCRC
                0x0000000008001e48                CRC_GetCRC
                0x0000000008001e60                CRC_SetIDRegister
                0x0000000008001e80                CRC_GetIDRegister
 .text          0x0000000008001e98      0x69c Drivers/STM32F4xx_StdPeriph_Driver/src/stm32f4xx_cryp.o
                0x0000000008001e98                CRYP_DeInit
                0x0000000008001eb0                CRYP_Init
                0x0000000008001f54                CRYP_StructInit
                0x0000000008001f80                CRYP_KeyInit
                0x0000000008001fd8                CRYP_KeyStructInit
                0x000000000800201c                CRYP_IVInit
                0x0000000008002054                CRYP_IVStructInit
                0x0000000008002080                CRYP_PhaseConfig
                0x00000000080020b8                CRYP_FIFOFlush
                0x00000000080020d8                CRYP_Cmd
                0x0000000008002114                CRYP_DataIn
                0x0000000008002134                CRYP_DataOut
                0x000000000800214c                CRYP_SaveContext
                0x00000000080022dc                CRYP_RestoreContext
                0x00000000080023f0                CRYP_DMACmd
                0x0000000008002434                CRYP_ITConfig
                0x0000000008002478                CRYP_GetITStatus
                0x00000000080024b0                CRYP_GetCmdStatus
                0x00000000080024e4                CRYP_GetFlagStatus
 .text          0x0000000008002534     0x22b8 Drivers/STM32F4xx_StdPeriph_Driver/src/stm32f4xx_cryp_aes.o
                0x0000000008002534                CRYP_AES_ECB
                0x0000000008002904                CRYP_AES_CBC
                0x0000000008002d5c                CRYP_AES_CTR
                0x0000000008003158                CRYP_AES_GCM
                0x0000000008003b0e                CRYP_AES_CCM
 .text          0x00000000080047ec      0x2a0 Drivers/STM32F4xx_StdPeriph_Driver/src/stm32f4xx_cryp_des.o
                0x00000000080047ec                CRYP_DES_ECB
                0x0000000008004924                CRYP_DES_CBC
 .text          0x0000000008004a8c      0x358 Drivers/STM32F4xx_StdPeriph_Driver/src/stm32f4xx_cryp_tdes.o
                0x0000000008004a8c                CRYP_TDES_ECB
                0x0000000008004c0e                CRYP_TDES_CBC
 .text          0x0000000008004de4      0x450 Drivers/STM32F4xx_StdPeriph_Driver/src/stm32f4xx_dac.o
                0x0000000008004de4                DAC_DeInit
                0x0000000008004e00                DAC_Init
                0x0000000008004e68                DAC_StructInit
                0x0000000008004e94                DAC_Cmd
                0x0000000008004ee0                DAC_SoftwareTriggerCmd
                0x0000000008004f30                DAC_DualSoftwareTriggerCmd
                0x0000000008004f6c                DAC_WaveGenerationCmd
                0x0000000008004fb8                DAC_SetChannel1Data
                0x0000000008004ff0                DAC_SetChannel2Data
                0x0000000008005028                DAC_SetDualChannelData
                0x0000000008005080                DAC_GetDataOutputValue
                0x00000000080050b4                DAC_DMACmd
                0x0000000008005104                DAC_ITConfig
                0x0000000008005150                DAC_GetFlagStatus
                0x000000000800518c                DAC_ClearFlag
                0x00000000080051b4                DAC_GetITStatus
                0x000000000800520c                DAC_ClearITPendingBit
 .text          0x0000000008005234       0xf4 Drivers/STM32F4xx_StdPeriph_Driver/src/stm32f4xx_dbgmcu.o
                0x0000000008005234                DBGMCU_GetREVID
                0x000000000800524c                DBGMCU_GetDEVID
                0x0000000008005268                DBGMCU_Config
                0x00000000080052a8                DBGMCU_APB1PeriphConfig
                0x00000000080052e8                DBGMCU_APB2PeriphConfig
 .text          0x0000000008005328      0x3a4 Drivers/STM32F4xx_StdPeriph_Driver/src/stm32f4xx_dcmi.o
                0x0000000008005328                DCMI_DeInit
                0x0000000008005364                DCMI_Init
                0x00000000080053e4                DCMI_StructInit
                0x0000000008005422                DCMI_CROPConfig
                0x0000000008005460                DCMI_CROPCmd
                0x000000000800549c                DCMI_SetEmbeddedSynchroCodes
                0x00000000080054d8                DCMI_JPEGCmd
                0x0000000008005514                DCMI_Cmd
                0x0000000008005550                DCMI_CaptureCmd
                0x000000000800558c                DCMI_ReadData
                0x00000000080055a4                DCMI_ITConfig
                0x00000000080055e8                DCMI_GetFlagStatus
                0x000000000800564c                DCMI_ClearFlag
                0x000000000800566c                DCMI_GetITStatus
                0x00000000080056ac                DCMI_ClearITPendingBit
 .text          0x00000000080056cc      0x71c Drivers/STM32F4xx_StdPeriph_Driver/src/stm32f4xx_dma.o
                0x00000000080056cc                DMA_DeInit
                0x0000000008005874                DMA_Init
                0x0000000008005924                DMA_StructInit
                0x0000000008005992                DMA_Cmd
                0x00000000080059ca                DMA_PeriphIncOffsetSizeConfig
                0x0000000008005a00                DMA_FlowControllerConfig
                0x0000000008005a36                DMA_SetCurrDataCounter
                0x0000000008005a54                DMA_GetCurrDataCounter
                0x0000000008005a6e                DMA_DoubleBufferModeConfig
                0x0000000008005aac                DMA_DoubleBufferModeCmd
                0x0000000008005ae4                DMA_MemoryTargetConfig
                0x0000000008005b10                DMA_GetCurrentMemoryTarget
                0x0000000008005b40                DMA_GetCmdStatus
                0x0000000008005b70                DMA_GetFIFOStatus
                0x0000000008005b94                DMA_GetFlagStatus
                0x0000000008005c0c                DMA_ClearFlag
                0x0000000008005c68                DMA_ITConfig
                0x0000000008005cdc                DMA_GetITStatus
                0x0000000008005d8c                DMA_ClearITPendingBit
 .text          0x0000000008005de8      0x224 Drivers/STM32F4xx_StdPeriph_Driver/src/stm32f4xx_exti.o
                0x0000000008005de8                EXTI_DeInit
                0x0000000008005e1c                EXTI_Init
                0x0000000008005f00                EXTI_StructInit
                0x0000000008005f2c                EXTI_GenerateSWInterrupt
                0x0000000008005f50                EXTI_GetFlagStatus
                0x0000000008005f84                EXTI_ClearFlag
                0x0000000008005fa4                EXTI_GetITStatus
                0x0000000008005fec                EXTI_ClearITPendingBit
 .text          0x000000000800600c      0x7ec Drivers/STM32F4xx_StdPeriph_Driver/src/stm32f4xx_flash.o
                0x000000000800600c                FLASH_SetLatency
                0x000000000800602c                FLASH_PrefetchBufferCmd
                0x0000000008006068                FLASH_InstructionCacheCmd
                0x00000000080060a4                FLASH_DataCacheCmd
                0x00000000080060e0                FLASH_InstructionCacheReset
                0x0000000008006100                FLASH_DataCacheReset
                0x0000000008006120                FLASH_Unlock
                0x0000000008006150                FLASH_Lock
                0x0000000008006170                FLASH_EraseSector
                0x0000000008006230                FLASH_EraseAllSectors
                0x0000000008006282                FLASH_ProgramDoubleWord
                0x00000000080062f0                FLASH_ProgramWord
                0x0000000008006358                FLASH_ProgramHalfWord
                0x00000000080063c4                FLASH_ProgramByte
                0x000000000800642c                FLASH_OB_Unlock
                0x0000000008006460                FLASH_OB_Lock
                0x0000000008006480                FLASH_OB_WRPConfig
                0x00000000080064dc                FLASH_OB_WRP1Config
                0x0000000008006538                FLASH_OB_RDPConfig
                0x0000000008006568                FLASH_OB_UserConfig
                0x00000000080065c0                FLASH_OB_BORConfig
                0x00000000080065fc                FLASH_OB_Launch
                0x000000000800662c                FLASH_OB_GetUser
                0x0000000008006648                FLASH_OB_GetWRP
                0x0000000008006660                FLASH_OB_GetWRP1
                0x0000000008006678                FLASH_OB_GetRDP
                0x00000000080066a8                FLASH_OB_GetBOR
                0x00000000080066c8                FLASH_ITConfig
                0x0000000008006708                FLASH_GetFlagStatus
                0x000000000800673c                FLASH_ClearFlag
                0x000000000800675c                FLASH_GetStatus
                0x00000000080067c8                FLASH_WaitForLastOperation
 .text          0x00000000080067f8      0x968 Drivers/STM32F4xx_StdPeriph_Driver/src/stm32f4xx_fsmc.o
                0x00000000080067f8                FSMC_NORSRAMDeInit
                0x0000000008006850                FSMC_NORSRAMInit
                0x0000000008006988                FSMC_NORSRAMStructInit
                0x0000000008006a5e                FSMC_NORSRAMCmd
                0x0000000008006ab4                FSMC_NANDDeInit
                0x0000000008006b10                FSMC_NANDInit
                0x0000000008006be0                FSMC_NANDStructInit
                0x0000000008006c5e                FSMC_NANDCmd
                0x0000000008006ccc                FSMC_NANDECCCmd
                0x0000000008006d38                FSMC_GetECC
                0x0000000008006d70                FSMC_PCCARDDeInit
                0x0000000008006da8                FSMC_PCCARDInit
                0x0000000008006e54                FSMC_PCCARDStructInit
                0x0000000008006eda                FSMC_PCCARDCmd
                0x0000000008006f18                FSMC_ITConfig
                0x0000000008006fb8                FSMC_GetFlagStatus
                0x000000000800701c                FSMC_ClearFlag
                0x000000000800707c                FSMC_GetITStatus
                0x00000000080070fc                FSMC_ClearITPendingBit
 .text          0x0000000008007160      0x490 Drivers/STM32F4xx_StdPeriph_Driver/src/stm32f4xx_gpio.o
                0x0000000008007160                GPIO_DeInit
                0x0000000008007280                GPIO_Init
                0x000000000800739c                GPIO_StructInit
                0x00000000080073d0                GPIO_PinLockConfig
                0x0000000008007414                GPIO_ReadInputDataBit
                0x0000000008007448                GPIO_ReadInputData
                0x0000000008007462                GPIO_ReadOutputDataBit
                0x0000000008007496                GPIO_ReadOutputData
                0x00000000080074b0                GPIO_SetBits
                0x00000000080074ce                GPIO_ResetBits
                0x00000000080074ec                GPIO_WriteBit
                0x000000000800751c                GPIO_Write
                0x000000000800753a                GPIO_ToggleBits
                0x000000000800755e                GPIO_PinAFConfig
 .text          0x00000000080075f0      0x418 Drivers/STM32F4xx_StdPeriph_Driver/src/stm32f4xx_hash.o
                0x00000000080075f0                HASH_DeInit
                0x0000000008007608                HASH_Init
                0x0000000008007678                HASH_StructInit
                0x00000000080076a4                HASH_Reset
                0x00000000080076c4                HASH_SetLastWordValidBitsNbr
                0x00000000080076f8                HASH_DataIn
                0x0000000008007718                HASH_GetInFIFOWordsNbr
                0x0000000008007738                HASH_GetDigest
                0x0000000008007794                HASH_StartDigest
                0x00000000080077b4                HASH_SaveContext
                0x0000000008007810                HASH_RestoreContext
                0x000000000800787c                HASH_AutoStartDigest
                0x00000000080078b8                HASH_DMACmd
                0x00000000080078f4                HASH_ITConfig
                0x0000000008007934                HASH_GetFlagStatus
                0x0000000008007984                HASH_ClearFlag
                0x00000000080079a4                HASH_GetITStatus
                0x00000000080079e8                HASH_ClearITPendingBit
 .text          0x0000000008007a08      0x308 Drivers/STM32F4xx_StdPeriph_Driver/src/stm32f4xx_hash_md5.o
                0x0000000008007a08                HASH_MD5
                0x0000000008007b12                HMAC_MD5
 .text          0x0000000008007d10      0x32e Drivers/STM32F4xx_StdPeriph_Driver/src/stm32f4xx_hash_sha1.o
                0x0000000008007d10                HASH_SHA1
                0x0000000008007e2c                HMAC_SHA1
 *fill*         0x000000000800803e        0x2 
 .text          0x0000000008008040      0xa18 Drivers/STM32F4xx_StdPeriph_Driver/src/stm32f4xx_i2c.o
                0x0000000008008040                I2C_DeInit
                0x00000000080080b4                I2C_Init
                0x0000000008008238                I2C_StructInit
                0x0000000008008276                I2C_Cmd
                0x00000000080082b6                I2C_AnalogFilterCmd
                0x00000000080082f6                I2C_DigitalFilterConfig
                0x000000000800833a                I2C_GenerateSTART
                0x000000000800837a                I2C_GenerateSTOP
                0x00000000080083ba                I2C_Send7bitAddress
                0x00000000080083f6                I2C_AcknowledgeConfig
                0x0000000008008436                I2C_OwnAddress2Config
                0x000000000800847a                I2C_DualAddressCmd
                0x00000000080084ba                I2C_GeneralCallCmd
                0x00000000080084fa                I2C_SoftwareResetCmd
                0x000000000800853e                I2C_StretchClockCmd
                0x000000000800857e                I2C_FastModeDutyCycleConfig
                0x00000000080085c0                I2C_NACKPositionConfig
                0x0000000008008602                I2C_SMBusAlertConfig
                0x0000000008008644                I2C_ARPCmd
                0x0000000008008684                I2C_SendData
                0x00000000080086a4                I2C_ReceiveData
                0x00000000080086c0                I2C_TransmitPEC
                0x0000000008008700                I2C_PECPositionConfig
                0x0000000008008742                I2C_CalculatePEC
                0x0000000008008782                I2C_GetPEC
                0x00000000080087a2                I2C_DMACmd
                0x00000000080087e2                I2C_DMALastTransferCmd
                0x0000000008008822                I2C_ReadRegister
                0x0000000008008850                I2C_ITConfig
                0x0000000008008898                I2C_CheckEvent
                0x00000000080088f8                I2C_GetLastEvent
                0x000000000800893c                I2C_GetFlagStatus
                0x00000000080089a2                I2C_ClearFlag
                0x00000000080089d0                I2C_GetITStatus
                0x0000000008008a2a                I2C_ClearITPendingBit
 .text          0x0000000008008a58       0xd0 Drivers/STM32F4xx_StdPeriph_Driver/src/stm32f4xx_iwdg.o
                0x0000000008008a58                IWDG_WriteAccessCmd
                0x0000000008008a78                IWDG_SetPrescaler
                0x0000000008008a98                IWDG_SetReload
                0x0000000008008ab8                IWDG_ReloadCounter
                0x0000000008008ad4                IWDG_Enable
                0x0000000008008af0                IWDG_GetFlagStatus
 .text          0x0000000008008b28      0x228 Drivers/STM32F4xx_StdPeriph_Driver/src/stm32f4xx_pwr.o
                0x0000000008008b28                PWR_DeInit
                0x0000000008008b44                PWR_BackupAccessCmd
                0x0000000008008b64                PWR_PVDLevelConfig
                0x0000000008008b9c                PWR_PVDCmd
                0x0000000008008bbc                PWR_WakeUpPinCmd
                0x0000000008008bdc                PWR_BackupRegulatorCmd
                0x0000000008008bfc                PWR_MainRegulatorModeConfig
                0x0000000008008c34                PWR_FlashPowerDownCmd
                0x0000000008008c54                PWR_EnterSTOPMode
                0x0000000008008cb8                PWR_EnterSTANDBYMode
                0x0000000008008cf4                PWR_GetFlagStatus
                0x0000000008008d28                PWR_ClearFlag
 .text          0x0000000008008d50      0xb08 Drivers/STM32F4xx_StdPeriph_Driver/src/stm32f4xx_rcc.o
                0x0000000008008d50                RCC_DeInit
                0x0000000008008dac                RCC_HSEConfig
                0x0000000008008dd4                RCC_WaitForHSEStartUp
                0x0000000008008e24                RCC_AdjustHSICalibrationValue
                0x0000000008008e60                RCC_HSICmd
                0x0000000008008e80                RCC_LSEConfig
                0x0000000008008ec4                RCC_LSICmd
                0x0000000008008ee4                RCC_PLLConfig
                0x0000000008008f24                RCC_PLLCmd
                0x0000000008008f44                RCC_PLLI2SConfig
                0x0000000008008f70                RCC_PLLI2SCmd
                0x0000000008008f90                RCC_ClockSecuritySystemCmd
                0x0000000008008fb0                RCC_MCO1Config
                0x0000000008008ff0                RCC_MCO2Config
                0x0000000008009030                RCC_SYSCLKConfig
                0x0000000008009068                RCC_GetSYSCLKSource
                0x0000000008009088                RCC_HCLKConfig
                0x00000000080090c0                RCC_PCLK1Config
                0x00000000080090f8                RCC_PCLK2Config
                0x0000000008009134                RCC_GetClocksFreq
                0x0000000008009284                RCC_RTCCLKConfig
                0x00000000080092e0                RCC_RTCCLKCmd
                0x0000000008009300                RCC_BackupResetCmd
                0x0000000008009320                RCC_I2SCLKConfig
                0x0000000008009340                RCC_TIMCLKPresConfig
                0x0000000008009360                RCC_AHB1PeriphClockCmd
                0x00000000080093a0                RCC_AHB2PeriphClockCmd
                0x00000000080093e0                RCC_AHB3PeriphClockCmd
                0x0000000008009420                RCC_APB1PeriphClockCmd
                0x0000000008009460                RCC_APB2PeriphClockCmd
                0x00000000080094a0                RCC_AHB1PeriphResetCmd
                0x00000000080094e0                RCC_AHB2PeriphResetCmd
                0x0000000008009520                RCC_AHB3PeriphResetCmd
                0x0000000008009560                RCC_APB1PeriphResetCmd
                0x00000000080095a0                RCC_APB2PeriphResetCmd
                0x00000000080095e0                RCC_AHB1PeriphClockLPModeCmd
                0x0000000008009620                RCC_AHB2PeriphClockLPModeCmd
                0x0000000008009660                RCC_AHB3PeriphClockLPModeCmd
                0x00000000080096a0                RCC_APB1PeriphClockLPModeCmd
                0x00000000080096e0                RCC_APB2PeriphClockLPModeCmd
                0x0000000008009720                RCC_ITConfig
                0x000000000800976c                RCC_GetFlagStatus
                0x00000000080097e0                RCC_ClearFlag
                0x0000000008009800                RCC_GetITStatus
                0x0000000008009838                RCC_ClearITPendingBit
 .text          0x0000000008009858      0x160 Drivers/STM32F4xx_StdPeriph_Driver/src/stm32f4xx_rng.o
                0x0000000008009858                RNG_DeInit
                0x0000000008009870                RNG_Cmd
                0x00000000080098ac                RNG_GetRandomNumber
                0x00000000080098c4                RNG_ITConfig
                0x0000000008009900                RNG_GetFlagStatus
                0x0000000008009938                RNG_ClearFlag
                0x000000000800995c                RNG_GetITStatus
                0x0000000008009994                RNG_ClearITPendingBit
 .text          0x00000000080099b8     0x1550 Drivers/STM32F4xx_StdPeriph_Driver/src/stm32f4xx_rtc.o
                0x00000000080099b8                RTC_DeInit
                0x0000000008009aac                RTC_Init
                0x0000000008009b24                RTC_StructInit
                0x0000000008009b4a                RTC_WriteProtectionCmd
                0x0000000008009b80                RTC_EnterInitMode
                0x0000000008009bf4                RTC_ExitInitMode
                0x0000000008009c14                RTC_WaitForSynchro
                0x0000000008009c8c                RTC_RefClockCmd
                0x0000000008009cf4                RTC_BypassShadowCmd
                0x0000000008009d40                RTC_SetTime
                0x0000000008009e54                RTC_TimeStructInit
                0x0000000008009e80                RTC_GetTime
                0x0000000008009f24                RTC_GetSubSecond
                0x0000000008009f4c                RTC_SetDate
                0x000000000800a06c                RTC_DateStructInit
                0x000000000800a098                RTC_GetDate
                0x000000000800a134                RTC_SetAlarm
                0x000000000800a26c                RTC_AlarmStructInit
                0x000000000800a2aa                RTC_GetAlarm
                0x000000000800a38c                RTC_AlarmCmd
                0x000000000800a428                RTC_AlarmSubSecondConfig
                0x000000000800a478                RTC_GetAlarmSubSecond
                0x000000000800a4b4                RTC_WakeUpClockConfig
                0x000000000800a4f8                RTC_SetWakeUpCounter
                0x000000000800a528                RTC_GetWakeUpCounter
                0x000000000800a540                RTC_WakeUpCmd
                0x000000000800a5d4                RTC_DayLightSavingConfig
                0x000000000800a61c                RTC_GetStoreOperation
                0x000000000800a638                RTC_OutputConfig
                0x000000000800a680                RTC_CoarseCalibConfig
                0x000000000800a6d0                RTC_CoarseCalibCmd
                0x000000000800a738                RTC_CalibOutputCmd
                0x000000000800a784                RTC_CalibOutputConfig
                0x000000000800a7c8                RTC_SmoothCalibConfig
                0x000000000800a84c                RTC_TimeStampCmd
                0x000000000800a8b0                RTC_GetTimeStamp
                0x000000000800a9d0                RTC_GetTimeStampSubSecond
                0x000000000800a9e8                RTC_TamperTriggerConfig
                0x000000000800aa28                RTC_TamperCmd
                0x000000000800aa68                RTC_TamperFilterConfig
                0x000000000800aa98                RTC_TamperSamplingFreqConfig
                0x000000000800aac8                RTC_TamperPinsPrechargeDuration
                0x000000000800aaf8                RTC_TimeStampOnTamperDetectionCmd
                0x000000000800ab34                RTC_TamperPullUpCmd
                0x000000000800ab70                RTC_WriteBackupRegister
                0x000000000800aba4                RTC_ReadBackupRegister
                0x000000000800abd4                RTC_TamperPinSelection
                0x000000000800ac04                RTC_TimeStampPinSelection
                0x000000000800ac34                RTC_OutputTypeConfig
                0x000000000800ac64                RTC_SynchroShiftConfig
                0x000000000800ad00                RTC_ITConfig
                0x000000000800ad7c                RTC_GetFlagStatus
                0x000000000800adc0                RTC_ClearFlag
                0x000000000800adf0                RTC_GetITStatus
                0x000000000800ae58                RTC_ClearITPendingBit
 .text          0x000000000800af08      0x4f0 Drivers/STM32F4xx_StdPeriph_Driver/src/stm32f4xx_sdio.o
                0x000000000800af08                SDIO_DeInit
                0x000000000800af24                SDIO_Init
                0x000000000800af84                SDIO_StructInit
                0x000000000800afbc                SDIO_ClockCmd
                0x000000000800afdc                SDIO_SetPowerState
                0x000000000800affc                SDIO_GetPowerState
                0x000000000800b018                SDIO_SendCommand
                0x000000000800b070                SDIO_CmdStructInit
                0x000000000800b0a2                SDIO_GetCommandResponse
                0x000000000800b0bc                SDIO_GetResponse
                0x000000000800b0e4                SDIO_DataConfig
                0x000000000800b140                SDIO_DataStructInit
                0x000000000800b17a                SDIO_GetDataCounter
                0x000000000800b190                SDIO_ReadData
                0x000000000800b1a8                SDIO_WriteData
                0x000000000800b1c8                SDIO_GetFIFOCount
                0x000000000800b1e0                SDIO_StartSDIOReadWait
                0x000000000800b200                SDIO_StopSDIOReadWait
                0x000000000800b220                SDIO_SetSDIOReadWaitMode
                0x000000000800b240                SDIO_SetSDIOOperation
                0x000000000800b260                SDIO_SendSDIOSuspendCmd
                0x000000000800b280                SDIO_CommandCompletionCmd
                0x000000000800b2a0                SDIO_CEATAITCmd
                0x000000000800b2d0                SDIO_SendCEATACmd
                0x000000000800b2f0                SDIO_DMACmd
                0x000000000800b310                SDIO_ITConfig
                0x000000000800b350                SDIO_GetFlagStatus
                0x000000000800b384                SDIO_ClearFlag
                0x000000000800b3a4                SDIO_GetITStatus
                0x000000000800b3d8                SDIO_ClearITPendingBit
 .text          0x000000000800b3f8      0x884 Drivers/STM32F4xx_StdPeriph_Driver/src/stm32f4xx_spi.o
                0x000000000800b3f8                SPI_I2S_DeInit
                0x000000000800b4d4                SPI_Init
                0x000000000800b55c                I2S_Init
                0x000000000800b708                SPI_StructInit
                0x000000000800b752                I2S_StructInit
                0x000000000800b78a                SPI_Cmd
                0x000000000800b7ca                I2S_Cmd
                0x000000000800b80a                SPI_DataSizeConfig
                0x000000000800b842                SPI_BiDirectionalLineConfig
                0x000000000800b884                SPI_NSSInternalSoftwareConfig
                0x000000000800b8c8                SPI_SSOutputCmd
                0x000000000800b908                SPI_TIModeCmd
                0x000000000800b948                I2S_FullDuplexConfig
                0x000000000800b9e4                SPI_I2S_ReceiveData
                0x000000000800b9fe                SPI_I2S_SendData
                0x000000000800ba1c                SPI_CalculateCRC
                0x000000000800ba5c                SPI_TransmitCRC
                0x000000000800ba80                SPI_GetCRC
                0x000000000800bab2                SPI_GetCRCPolynomial
                0x000000000800bacc                SPI_I2S_DMACmd
                0x000000000800bb14                SPI_I2S_ITConfig
                0x000000000800bb76                SPI_I2S_GetFlagStatus
                0x000000000800bbae                SPI_I2S_ClearFlag
                0x000000000800bbd0                SPI_I2S_GetITStatus
                0x000000000800bc46                SPI_I2S_ClearITPendingBit
 .text          0x000000000800bc7c      0x134 Drivers/STM32F4xx_StdPeriph_Driver/src/stm32f4xx_syscfg.o
                0x000000000800bc7c                SYSCFG_DeInit
                0x000000000800bc98                SYSCFG_MemoryRemapConfig
                0x000000000800bcb8                SYSCFG_EXTILineConfig
                0x000000000800bd3c                SYSCFG_ETH_MediaInterfaceConfig
                0x000000000800bd5c                SYSCFG_CompensationCellCmd
                0x000000000800bd7c                SYSCFG_GetCompensationCellStatus
 .text          0x000000000800bdb0     0x1c18 Drivers/STM32F4xx_StdPeriph_Driver/src/stm32f4xx_tim.o
                0x000000000800bdb0                TIM_DeInit
                0x000000000800bf70                TIM_TimeBaseInit
                0x000000000800c048                TIM_TimeBaseStructInit
                0x000000000800c07c                TIM_PrescalerConfig
                0x000000000800c0a4                TIM_CounterModeConfig
                0x000000000800c0dc                TIM_SetCounter
                0x000000000800c0f8                TIM_SetAutoreload
                0x000000000800c114                TIM_GetCounter
                0x000000000800c12c                TIM_GetPrescaler
                0x000000000800c146                TIM_UpdateDisableConfig
                0x000000000800c186                TIM_UpdateRequestConfig
                0x000000000800c1c6                TIM_ARRPreloadConfig
                0x000000000800c206                TIM_SelectOnePulseMode
                0x000000000800c23e                TIM_SetClockDivision
                0x000000000800c276                TIM_Cmd
                0x000000000800c2b6                TIM_OC1Init
                0x000000000800c3ac                TIM_OC2Init
                0x000000000800c4bc                TIM_OC3Init
                0x000000000800c5c8                TIM_OC4Init
                0x000000000800c698                TIM_OCStructInit
                0x000000000800c6dc                TIM_SelectOCxM
                0x000000000800c78e                TIM_SetCompare1
                0x000000000800c7aa                TIM_SetCompare2
                0x000000000800c7c6                TIM_SetCompare3
                0x000000000800c7e2                TIM_SetCompare4
                0x000000000800c7fe                TIM_ForcedOC1Config
                0x000000000800c836                TIM_ForcedOC2Config
                0x000000000800c872                TIM_ForcedOC3Config
                0x000000000800c8aa                TIM_ForcedOC4Config
                0x000000000800c8e6                TIM_OC1PreloadConfig
                0x000000000800c91e                TIM_OC2PreloadConfig
                0x000000000800c95a                TIM_OC3PreloadConfig
                0x000000000800c992                TIM_OC4PreloadConfig
                0x000000000800c9ce                TIM_OC1FastConfig
                0x000000000800ca06                TIM_OC2FastConfig
                0x000000000800ca42                TIM_OC3FastConfig
                0x000000000800ca7a                TIM_OC4FastConfig
                0x000000000800cab6                TIM_ClearOC1Ref
                0x000000000800caee                TIM_ClearOC2Ref
                0x000000000800cb2a                TIM_ClearOC3Ref
                0x000000000800cb62                TIM_ClearOC4Ref
                0x000000000800cb9e                TIM_OC1PolarityConfig
                0x000000000800cbd6                TIM_OC1NPolarityConfig
                0x000000000800cc0e                TIM_OC2PolarityConfig
                0x000000000800cc4a                TIM_OC2NPolarityConfig
                0x000000000800cc86                TIM_OC3PolarityConfig
                0x000000000800ccc2                TIM_OC3NPolarityConfig
                0x000000000800ccfe                TIM_OC4PolarityConfig
                0x000000000800cd3a                TIM_CCxCmd
                0x000000000800cd90                TIM_CCxNCmd
                0x000000000800cde6                TIM_ICInit
                0x000000000800ce8e                TIM_ICStructInit
                0x000000000800cec0                TIM_PWMIConfig
                0x000000000800cf78                TIM_GetCapture1
                0x000000000800cf90                TIM_GetCapture2
                0x000000000800cfa8                TIM_GetCapture3
                0x000000000800cfc0                TIM_GetCapture4
                0x000000000800cfd8                TIM_SetIC1Prescaler
                0x000000000800d010                TIM_SetIC2Prescaler
                0x000000000800d04c                TIM_SetIC3Prescaler
                0x000000000800d084                TIM_SetIC4Prescaler
                0x000000000800d0c0                TIM_BDTRConfig
                0x000000000800d110                TIM_BDTRStructInit
                0x000000000800d14e                TIM_CtrlPWMOutputs
                0x000000000800d19a                TIM_SelectCOM
                0x000000000800d1da                TIM_CCPreloadControl
                0x000000000800d21a                TIM_ITConfig
                0x000000000800d262                TIM_GenerateEvent
                0x000000000800d280                TIM_GetFlagStatus
                0x000000000800d2b8                TIM_ClearFlag
                0x000000000800d2da                TIM_GetITStatus
                0x000000000800d32e                TIM_ClearITPendingBit
                0x000000000800d350                TIM_DMAConfig
                0x000000000800d37a                TIM_DMACmd
                0x000000000800d3c2                TIM_SelectCCDMA
                0x000000000800d402                TIM_InternalClockConfig
                0x000000000800d426                TIM_ITRxExternalClockConfig
                0x000000000800d454                TIM_TIxExternalClockConfig
                0x000000000800d4b0                TIM_ETRClockMode1Config
                0x000000000800d50e                TIM_ETRClockMode2Config
                0x000000000800d54c                TIM_SelectInputTrigger
                0x000000000800d584                TIM_SelectOutputTrigger
                0x000000000800d5bc                TIM_SelectSlaveMode
                0x000000000800d5f4                TIM_SelectMasterSlaveMode
                0x000000000800d62c                TIM_ETRConfig
                0x000000000800d680                TIM_EncoderInterfaceConfig
                0x000000000800d718                TIM_SelectHallSensor
                0x000000000800d758                TIM_RemapConfig
 .text          0x000000000800d9c8      0x970 Drivers/STM32F4xx_StdPeriph_Driver/src/stm32f4xx_usart.o
                0x000000000800d9c8                USART_DeInit
                0x000000000800dae0                USART_Init
                0x000000000800dc54                USART_StructInit
                0x000000000800dc8e                USART_ClockInit
                0x000000000800dce4                USART_ClockStructInit
                0x000000000800dd10                USART_Cmd
                0x000000000800dd50                USART_SetPrescaler
                0x000000000800dd8a                USART_OverSampling8Cmd
                0x000000000800ddce                USART_OneBitMethodCmd
                0x000000000800de0e                USART_SendData
                0x000000000800de32                USART_ReceiveData
                0x000000000800de52                USART_SetAddress
                0x000000000800de8c                USART_ReceiverWakeUpCmd
                0x000000000800decc                USART_WakeUpConfig
                0x000000000800df04                USART_LINBreakDetectLengthConfig
                0x000000000800df3c                USART_LINCmd
                0x000000000800df7c                USART_SendBreak
                0x000000000800dfa0                USART_HalfDuplexCmd
                0x000000000800dfe0                USART_SetGuardTime
                0x000000000800e01c                USART_SmartCardCmd
                0x000000000800e05c                USART_SmartCardNACKCmd
                0x000000000800e09c                USART_IrDAConfig
                0x000000000800e0d4                USART_IrDACmd
                0x000000000800e114                USART_DMACmd
                0x000000000800e15c                USART_ITConfig
                0x000000000800e1ec                USART_GetFlagStatus
                0x000000000800e224                USART_ClearFlag
                0x000000000800e246                USART_GetITStatus
                0x000000000800e2fc                USART_ClearITPendingBit
 .text          0x000000000800e338      0x138 Drivers/STM32F4xx_StdPeriph_Driver/src/stm32f4xx_wwdg.o
                0x000000000800e338                WWDG_DeInit
                0x000000000800e354                WWDG_SetPrescaler
                0x000000000800e388                WWDG_SetWindowValue
                0x000000000800e3c4                WWDG_EnableIT
                0x000000000800e3dc                WWDG_SetCounter
                0x000000000800e400                WWDG_Enable
                0x000000000800e428                WWDG_GetFlagStatus
                0x000000000800e458                WWDG_ClearFlag
 .text          0x000000000800e470      0x21c src/main.o
                0x000000000800e508                main
                0x000000000800e568                Delay
                0x000000000800e590                TimingDelay_Decrement
                0x000000000800e5b4                gpio_init
                0x000000000800e5f4                gpio_button_init
                0x000000000800e678                gpio_button_handler
 .text          0x000000000800e68c       0x14 src/startup_stm32f411xe.o
 .text          0x000000000800e6a0       0x7e src/stm32f4xx_it.o
                0x000000000800e6a0                NMI_Handler
                0x000000000800e6ae                HardFault_Handler
                0x000000000800e6b4                MemManage_Handler
                0x000000000800e6ba                BusFault_Handler
                0x000000000800e6c0                UsageFault_Handler
                0x000000000800e6c6                SVC_Handler
                0x000000000800e6d4                DebugMon_Handler
                0x000000000800e6e2                PendSV_Handler
                0x000000000800e6f0                SysTick_Handler
                0x000000000800e6fc                EXTI15_10_IRQHandler
 *fill*         0x000000000800e71e        0x2 
 .text          0x000000000800e720      0x160 src/system_stm32f4xx.o
                0x000000000800e720                SystemInit
                0x000000000800e78c                SystemCoreClockUpdate
 .text          0x000000000800e880      0x53c src/tiny_printf.o
                0x000000000800e880                ts_itoa
                0x000000000800e912                ts_formatstring
                0x000000000800ea40                ts_formatlength
                0x000000000800eb6c                sprintf
                0x000000000800eb6c                siprintf
                0x000000000800eb98                fprintf
                0x000000000800eb98                fiprintf
                0x000000000800ec32                printf
                0x000000000800ec32                iprintf
                0x000000000800ecc4                fputs
                0x000000000800ed2c                puts
                0x000000000800ed84                fwrite
 .text          0x000000000800edbc        0x0 /opt/Atollic_TrueSTUDIO_for_STM32_x86_64_9.3.0/ARMTools/bin/../lib/gcc/arm-atollic-eabi/6.3.1/../../../../arm-atollic-eabi/lib/armv7e-m/fpu/libc_nano.a(lib_a-init.o)
 .text          0x000000000800edbc       0x10 /opt/Atollic_TrueSTUDIO_for_STM32_x86_64_9.3.0/ARMTools/bin/../lib/gcc/arm-atollic-eabi/6.3.1/../../../../arm-atollic-eabi/lib/armv7e-m/fpu/libc_nano.a(lib_a-strlen.o)
                0x000000000800edbc                strlen
 .text          0x000000000800edcc        0x0 /opt/Atollic_TrueSTUDIO_for_STM32_x86_64_9.3.0/ARMTools/bin/../lib/gcc/arm-atollic-eabi/6.3.1/../../../../arm-atollic-eabi/lib/armv7e-m/fpu/libnosys.a(write.o)
 .text          0x000000000800edcc        0x0 /opt/Atollic_TrueSTUDIO_for_STM32_x86_64_9.3.0/ARMTools/bin/../lib/gcc/arm-atollic-eabi/6.3.1/../../../../arm-atollic-eabi/lib/armv7e-m/fpu/libnosys.a(errno.o)
 .text          0x000000000800edcc        0x0 /opt/Atollic_TrueSTUDIO_for_STM32_x86_64_9.3.0/ARMTools/bin/../lib/gcc/arm-atollic-eabi/6.3.1/armv7e-m/fpu/crtend.o
 .text          0x000000000800edcc        0x0 /opt/Atollic_TrueSTUDIO_for_STM32_x86_64_9.3.0/ARMTools/bin/../lib/gcc/arm-atollic-eabi/6.3.1/armv7e-m/fpu/crtn.o
 *(.text*)
 .text.Reset_Handler
                0x000000000800edcc       0x50 src/startup_stm32f411xe.o
                0x000000000800edcc                Reset_Handler
 .text.Default_Handler
                0x000000000800ee1c        0x2 src/startup_stm32f411xe.o
                0x000000000800ee1c                RTC_Alarm_IRQHandler
                0x000000000800ee1c                EXTI2_IRQHandler
                0x000000000800ee1c                SPI4_IRQHandler
                0x000000000800ee1c                TIM1_CC_IRQHandler
                0x000000000800ee1c                DMA2_Stream5_IRQHandler
                0x000000000800ee1c                DMA1_Stream5_IRQHandler
                0x000000000800ee1c                PVD_IRQHandler
                0x000000000800ee1c                SDIO_IRQHandler
                0x000000000800ee1c                TAMP_STAMP_IRQHandler
                0x000000000800ee1c                EXTI3_IRQHandler
                0x000000000800ee1c                TIM1_UP_TIM10_IRQHandler
                0x000000000800ee1c                I2C3_ER_IRQHandler
                0x000000000800ee1c                EXTI0_IRQHandler
                0x000000000800ee1c                I2C2_EV_IRQHandler
                0x000000000800ee1c                DMA1_Stream2_IRQHandler
                0x000000000800ee1c                FPU_IRQHandler
                0x000000000800ee1c                DMA2_Stream2_IRQHandler
                0x000000000800ee1c                SPI1_IRQHandler
                0x000000000800ee1c                TIM1_BRK_TIM9_IRQHandler
                0x000000000800ee1c                DMA2_Stream3_IRQHandler
                0x000000000800ee1c                USART6_IRQHandler
                0x000000000800ee1c                DMA2_Stream0_IRQHandler
                0x000000000800ee1c                TIM4_IRQHandler
                0x000000000800ee1c                I2C1_EV_IRQHandler
                0x000000000800ee1c                DMA1_Stream6_IRQHandler
                0x000000000800ee1c                DMA1_Stream1_IRQHandler
                0x000000000800ee1c                TIM3_IRQHandler
                0x000000000800ee1c                RCC_IRQHandler
                0x000000000800ee1c                Default_Handler
                0x000000000800ee1c                ADC_IRQHandler
                0x000000000800ee1c                DMA1_Stream7_IRQHandler
                0x000000000800ee1c                SPI5_IRQHandler
                0x000000000800ee1c                TIM5_IRQHandler
                0x000000000800ee1c                DMA2_Stream7_IRQHandler
                0x000000000800ee1c                I2C3_EV_IRQHandler
                0x000000000800ee1c                EXTI9_5_IRQHandler
                0x000000000800ee1c                RTC_WKUP_IRQHandler
                0x000000000800ee1c                SPI2_IRQHandler
                0x000000000800ee1c                DMA1_Stream0_IRQHandler
                0x000000000800ee1c                EXTI4_IRQHandler
                0x000000000800ee1c                WWDG_IRQHandler
                0x000000000800ee1c                TIM2_IRQHandler
                0x000000000800ee1c                OTG_FS_WKUP_IRQHandler
                0x000000000800ee1c                TIM1_TRG_COM_TIM11_IRQHandler
                0x000000000800ee1c                EXTI1_IRQHandler
                0x000000000800ee1c                USART2_IRQHandler
                0x000000000800ee1c                I2C2_ER_IRQHandler
                0x000000000800ee1c                DMA2_Stream1_IRQHandler
                0x000000000800ee1c                FLASH_IRQHandler
                0x000000000800ee1c                DMA2_Stream4_IRQHandler
                0x000000000800ee1c                USART1_IRQHandler
                0x000000000800ee1c                OTG_FS_IRQHandler
                0x000000000800ee1c                SPI3_IRQHandler
                0x000000000800ee1c                DMA1_Stream4_IRQHandler
                0x000000000800ee1c                I2C1_ER_IRQHandler
                0x000000000800ee1c                DMA2_Stream6_IRQHandler
                0x000000000800ee1c                DMA1_Stream3_IRQHandler
 *fill*         0x000000000800ee1e        0x2 
 .text.__libc_init_array
                0x000000000800ee20       0x48 /opt/Atollic_TrueSTUDIO_for_STM32_x86_64_9.3.0/ARMTools/bin/../lib/gcc/arm-atollic-eabi/6.3.1/../../../../arm-atollic-eabi/lib/armv7e-m/fpu/libc_nano.a(lib_a-init.o)
                0x000000000800ee20                __libc_init_array
 .text._write   0x000000000800ee68       0x10 /opt/Atollic_TrueSTUDIO_for_STM32_x86_64_9.3.0/ARMTools/bin/../lib/gcc/arm-atollic-eabi/6.3.1/../../../../arm-atollic-eabi/lib/armv7e-m/fpu/libnosys.a(write.o)
                0x000000000800ee68                _write
 *(.glue_7)
 .glue_7        0x000000000800ee78        0x0 linker stubs
 *(.glue_7t)
 .glue_7t       0x000000000800ee78        0x0 linker stubs
 *(.eh_frame)
 .eh_frame      0x000000000800ee78        0x0 /opt/Atollic_TrueSTUDIO_for_STM32_x86_64_9.3.0/ARMTools/bin/../lib/gcc/arm-atollic-eabi/6.3.1/armv7e-m/fpu/crtbegin.o
 .eh_frame      0x000000000800ee78        0x4 /opt/Atollic_TrueSTUDIO_for_STM32_x86_64_9.3.0/ARMTools/bin/../lib/gcc/arm-atollic-eabi/6.3.1/armv7e-m/fpu/crtend.o
 *(.init)
 .init          0x000000000800ee7c        0x4 /opt/Atollic_TrueSTUDIO_for_STM32_x86_64_9.3.0/ARMTools/bin/../lib/gcc/arm-atollic-eabi/6.3.1/armv7e-m/fpu/crti.o
                0x000000000800ee7c                _init
 .init          0x000000000800ee80        0x8 /opt/Atollic_TrueSTUDIO_for_STM32_x86_64_9.3.0/ARMTools/bin/../lib/gcc/arm-atollic-eabi/6.3.1/armv7e-m/fpu/crtn.o
 *(.fini)
 .fini          0x000000000800ee88        0x4 /opt/Atollic_TrueSTUDIO_for_STM32_x86_64_9.3.0/ARMTools/bin/../lib/gcc/arm-atollic-eabi/6.3.1/armv7e-m/fpu/crti.o
                0x000000000800ee88                _fini
 .fini          0x000000000800ee8c        0x8 /opt/Atollic_TrueSTUDIO_for_STM32_x86_64_9.3.0/ARMTools/bin/../lib/gcc/arm-atollic-eabi/6.3.1/armv7e-m/fpu/crtn.o
                0x000000000800ee94                . = ALIGN (0x4)
                0x000000000800ee94                _etext = .

.vfp11_veneer   0x000000000800ee94        0x0
 .vfp11_veneer  0x000000000800ee94        0x0 linker stubs

.v4_bx          0x000000000800ee94        0x0
 .v4_bx         0x000000000800ee94        0x0 linker stubs

.iplt           0x000000000800ee94        0x0
 .iplt          0x000000000800ee94        0x0 /opt/Atollic_TrueSTUDIO_for_STM32_x86_64_9.3.0/ARMTools/bin/../lib/gcc/arm-atollic-eabi/6.3.1/armv7e-m/fpu/crtbegin.o

.rodata         0x000000000800ee94       0x14
                0x000000000800ee94                . = ALIGN (0x4)
 *(.rodata)
 .rodata        0x000000000800ee94       0x10 src/system_stm32f4xx.o
                0x000000000800ee94                AHBPrescTable
 .rodata        0x000000000800eea4        0x2 src/tiny_printf.o
 *(.rodata*)
                0x000000000800eea8                . = ALIGN (0x4)
 *fill*         0x000000000800eea6        0x2 

.rel.dyn        0x000000000800eea8        0x0
 .rel.iplt      0x000000000800eea8        0x0 /opt/Atollic_TrueSTUDIO_for_STM32_x86_64_9.3.0/ARMTools/bin/../lib/gcc/arm-atollic-eabi/6.3.1/armv7e-m/fpu/crtbegin.o

.ARM.extab
 *(.ARM.extab* .gnu.linkonce.armextab.*)

.ARM            0x000000000800eea8        0x0
                0x000000000800eea8                __exidx_start = .
 *(.ARM.exidx*)
                0x000000000800eea8                __exidx_end = .

.preinit_array  0x000000000800eea8        0x0
                0x000000000800eea8                PROVIDE (__preinit_array_start, .)
 *(.preinit_array*)
                0x000000000800eea8                PROVIDE (__preinit_array_end, .)

.init_array     0x000000000800eea8        0x4
                0x000000000800eea8                PROVIDE (__init_array_start, .)
 *(SORT(.init_array.*))
 *(.init_array*)
 .init_array    0x000000000800eea8        0x4 /opt/Atollic_TrueSTUDIO_for_STM32_x86_64_9.3.0/ARMTools/bin/../lib/gcc/arm-atollic-eabi/6.3.1/armv7e-m/fpu/crtbegin.o
                0x000000000800eeac                PROVIDE (__init_array_end, .)

.fini_array     0x000000000800eeac        0x4
                [!provide]                        PROVIDE (__fini_array_start, .)
 *(SORT(.fini_array.*))
 *(.fini_array*)
 .fini_array    0x000000000800eeac        0x4 /opt/Atollic_TrueSTUDIO_for_STM32_x86_64_9.3.0/ARMTools/bin/../lib/gcc/arm-atollic-eabi/6.3.1/armv7e-m/fpu/crtbegin.o
                [!provide]                        PROVIDE (__fini_array_end, .)
                0x000000000800eeb0                _sidata = LOADADDR (.data)

.data           0x0000000020000000       0x18 load address 0x000000000800eeb0
                0x0000000020000000                . = ALIGN (0x4)
                0x0000000020000000                _sdata = .
 *(.data)
 .data          0x0000000020000000        0x0 /opt/Atollic_TrueSTUDIO_for_STM32_x86_64_9.3.0/ARMTools/bin/../lib/gcc/arm-atollic-eabi/6.3.1/armv7e-m/fpu/crti.o
 .data          0x0000000020000000        0x4 /opt/Atollic_TrueSTUDIO_for_STM32_x86_64_9.3.0/ARMTools/bin/../lib/gcc/arm-atollic-eabi/6.3.1/armv7e-m/fpu/crtbegin.o
                0x0000000020000000                __dso_handle
 .data          0x0000000020000004        0x0 Drivers/STM32F4xx_StdPeriph_Driver/src/misc.o
 .data          0x0000000020000004        0x0 Drivers/STM32F4xx_StdPeriph_Driver/src/stm32f4xx_adc.o
 .data          0x0000000020000004        0x0 Drivers/STM32F4xx_StdPeriph_Driver/src/stm32f4xx_can.o
 .data          0x0000000020000004        0x0 Drivers/STM32F4xx_StdPeriph_Driver/src/stm32f4xx_crc.o
 .data          0x0000000020000004        0x0 Drivers/STM32F4xx_StdPeriph_Driver/src/stm32f4xx_cryp.o
 .data          0x0000000020000004        0x0 Drivers/STM32F4xx_StdPeriph_Driver/src/stm32f4xx_cryp_aes.o
 .data          0x0000000020000004        0x0 Drivers/STM32F4xx_StdPeriph_Driver/src/stm32f4xx_cryp_des.o
 .data          0x0000000020000004        0x0 Drivers/STM32F4xx_StdPeriph_Driver/src/stm32f4xx_cryp_tdes.o
 .data          0x0000000020000004        0x0 Drivers/STM32F4xx_StdPeriph_Driver/src/stm32f4xx_dac.o
 .data          0x0000000020000004        0x0 Drivers/STM32F4xx_StdPeriph_Driver/src/stm32f4xx_dbgmcu.o
 .data          0x0000000020000004        0x0 Drivers/STM32F4xx_StdPeriph_Driver/src/stm32f4xx_dcmi.o
 .data          0x0000000020000004        0x0 Drivers/STM32F4xx_StdPeriph_Driver/src/stm32f4xx_dma.o
 .data          0x0000000020000004        0x0 Drivers/STM32F4xx_StdPeriph_Driver/src/stm32f4xx_exti.o
 .data          0x0000000020000004        0x0 Drivers/STM32F4xx_StdPeriph_Driver/src/stm32f4xx_flash.o
 .data          0x0000000020000004        0x0 Drivers/STM32F4xx_StdPeriph_Driver/src/stm32f4xx_fsmc.o
 .data          0x0000000020000004        0x0 Drivers/STM32F4xx_StdPeriph_Driver/src/stm32f4xx_gpio.o
 .data          0x0000000020000004        0x0 Drivers/STM32F4xx_StdPeriph_Driver/src/stm32f4xx_hash.o
 .data          0x0000000020000004        0x0 Drivers/STM32F4xx_StdPeriph_Driver/src/stm32f4xx_hash_md5.o
 .data          0x0000000020000004        0x0 Drivers/STM32F4xx_StdPeriph_Driver/src/stm32f4xx_hash_sha1.o
 .data          0x0000000020000004        0x0 Drivers/STM32F4xx_StdPeriph_Driver/src/stm32f4xx_i2c.o
 .data          0x0000000020000004        0x0 Drivers/STM32F4xx_StdPeriph_Driver/src/stm32f4xx_iwdg.o
 .data          0x0000000020000004        0x0 Drivers/STM32F4xx_StdPeriph_Driver/src/stm32f4xx_pwr.o
 .data          0x0000000020000004       0x10 Drivers/STM32F4xx_StdPeriph_Driver/src/stm32f4xx_rcc.o
 .data          0x0000000020000014        0x0 Drivers/STM32F4xx_StdPeriph_Driver/src/stm32f4xx_rng.o
 .data          0x0000000020000014        0x0 Drivers/STM32F4xx_StdPeriph_Driver/src/stm32f4xx_rtc.o
 .data          0x0000000020000014        0x0 Drivers/STM32F4xx_StdPeriph_Driver/src/stm32f4xx_sdio.o
 .data          0x0000000020000014        0x0 Drivers/STM32F4xx_StdPeriph_Driver/src/stm32f4xx_spi.o
 .data          0x0000000020000014        0x0 Drivers/STM32F4xx_StdPeriph_Driver/src/stm32f4xx_syscfg.o
 .data          0x0000000020000014        0x0 Drivers/STM32F4xx_StdPeriph_Driver/src/stm32f4xx_tim.o
 .data          0x0000000020000014        0x0 Drivers/STM32F4xx_StdPeriph_Driver/src/stm32f4xx_usart.o
 .data          0x0000000020000014        0x0 Drivers/STM32F4xx_StdPeriph_Driver/src/stm32f4xx_wwdg.o
 .data          0x0000000020000014        0x0 src/main.o
 .data          0x0000000020000014        0x0 src/startup_stm32f411xe.o
 .data          0x0000000020000014        0x0 src/stm32f4xx_it.o
 .data          0x0000000020000014        0x4 src/system_stm32f4xx.o
                0x0000000020000014                SystemCoreClock
 .data          0x0000000020000018        0x0 src/tiny_printf.o
 .data          0x0000000020000018        0x0 /opt/Atollic_TrueSTUDIO_for_STM32_x86_64_9.3.0/ARMTools/bin/../lib/gcc/arm-atollic-eabi/6.3.1/../../../../arm-atollic-eabi/lib/armv7e-m/fpu/libc_nano.a(lib_a-init.o)
 .data          0x0000000020000018        0x0 /opt/Atollic_TrueSTUDIO_for_STM32_x86_64_9.3.0/ARMTools/bin/../lib/gcc/arm-atollic-eabi/6.3.1/../../../../arm-atollic-eabi/lib/armv7e-m/fpu/libc_nano.a(lib_a-strlen.o)
 .data          0x0000000020000018        0x0 /opt/Atollic_TrueSTUDIO_for_STM32_x86_64_9.3.0/ARMTools/bin/../lib/gcc/arm-atollic-eabi/6.3.1/../../../../arm-atollic-eabi/lib/armv7e-m/fpu/libnosys.a(write.o)
 .data          0x0000000020000018        0x0 /opt/Atollic_TrueSTUDIO_for_STM32_x86_64_9.3.0/ARMTools/bin/../lib/gcc/arm-atollic-eabi/6.3.1/../../../../arm-atollic-eabi/lib/armv7e-m/fpu/libnosys.a(errno.o)
 .data          0x0000000020000018        0x0 /opt/Atollic_TrueSTUDIO_for_STM32_x86_64_9.3.0/ARMTools/bin/../lib/gcc/arm-atollic-eabi/6.3.1/armv7e-m/fpu/crtend.o
 .data          0x0000000020000018        0x0 /opt/Atollic_TrueSTUDIO_for_STM32_x86_64_9.3.0/ARMTools/bin/../lib/gcc/arm-atollic-eabi/6.3.1/armv7e-m/fpu/crtn.o
 *(.data*)
                0x0000000020000018                . = ALIGN (0x4)
                0x0000000020000018                _edata = .

.igot.plt       0x0000000020000018        0x0 load address 0x000000000800eec8
 .igot.plt      0x0000000020000018        0x0 /opt/Atollic_TrueSTUDIO_for_STM32_x86_64_9.3.0/ARMTools/bin/../lib/gcc/arm-atollic-eabi/6.3.1/armv7e-m/fpu/crtbegin.o
                0x0000000020000018                . = ALIGN (0x4)

.bss            0x0000000020000018       0x24 load address 0x000000000800eec8
                0x0000000020000018                _sbss = .
                0x0000000020000018                __bss_start__ = _sbss
 *(.bss)
 .bss           0x0000000020000018        0x0 /opt/Atollic_TrueSTUDIO_for_STM32_x86_64_9.3.0/ARMTools/bin/../lib/gcc/arm-atollic-eabi/6.3.1/armv7e-m/fpu/crti.o
 .bss           0x0000000020000018       0x1c /opt/Atollic_TrueSTUDIO_for_STM32_x86_64_9.3.0/ARMTools/bin/../lib/gcc/arm-atollic-eabi/6.3.1/armv7e-m/fpu/crtbegin.o
 .bss           0x0000000020000034        0x0 Drivers/STM32F4xx_StdPeriph_Driver/src/misc.o
 .bss           0x0000000020000034        0x0 Drivers/STM32F4xx_StdPeriph_Driver/src/stm32f4xx_adc.o
 .bss           0x0000000020000034        0x0 Drivers/STM32F4xx_StdPeriph_Driver/src/stm32f4xx_can.o
 .bss           0x0000000020000034        0x0 Drivers/STM32F4xx_StdPeriph_Driver/src/stm32f4xx_crc.o
 .bss           0x0000000020000034        0x0 Drivers/STM32F4xx_StdPeriph_Driver/src/stm32f4xx_cryp.o
 .bss           0x0000000020000034        0x0 Drivers/STM32F4xx_StdPeriph_Driver/src/stm32f4xx_cryp_aes.o
 .bss           0x0000000020000034        0x0 Drivers/STM32F4xx_StdPeriph_Driver/src/stm32f4xx_cryp_des.o
 .bss           0x0000000020000034        0x0 Drivers/STM32F4xx_StdPeriph_Driver/src/stm32f4xx_cryp_tdes.o
 .bss           0x0000000020000034        0x0 Drivers/STM32F4xx_StdPeriph_Driver/src/stm32f4xx_dac.o
 .bss           0x0000000020000034        0x0 Drivers/STM32F4xx_StdPeriph_Driver/src/stm32f4xx_dbgmcu.o
 .bss           0x0000000020000034        0x0 Drivers/STM32F4xx_StdPeriph_Driver/src/stm32f4xx_dcmi.o
 .bss           0x0000000020000034        0x0 Drivers/STM32F4xx_StdPeriph_Driver/src/stm32f4xx_dma.o
 .bss           0x0000000020000034        0x0 Drivers/STM32F4xx_StdPeriph_Driver/src/stm32f4xx_exti.o
 .bss           0x0000000020000034        0x0 Drivers/STM32F4xx_StdPeriph_Driver/src/stm32f4xx_flash.o
 .bss           0x0000000020000034        0x0 Drivers/STM32F4xx_StdPeriph_Driver/src/stm32f4xx_fsmc.o
 .bss           0x0000000020000034        0x0 Drivers/STM32F4xx_StdPeriph_Driver/src/stm32f4xx_gpio.o
 .bss           0x0000000020000034        0x0 Drivers/STM32F4xx_StdPeriph_Driver/src/stm32f4xx_hash.o
 .bss           0x0000000020000034        0x0 Drivers/STM32F4xx_StdPeriph_Driver/src/stm32f4xx_hash_md5.o
 .bss           0x0000000020000034        0x0 Drivers/STM32F4xx_StdPeriph_Driver/src/stm32f4xx_hash_sha1.o
 .bss           0x0000000020000034        0x0 Drivers/STM32F4xx_StdPeriph_Driver/src/stm32f4xx_i2c.o
 .bss           0x0000000020000034        0x0 Drivers/STM32F4xx_StdPeriph_Driver/src/stm32f4xx_iwdg.o
 .bss           0x0000000020000034        0x0 Drivers/STM32F4xx_StdPeriph_Driver/src/stm32f4xx_pwr.o
 .bss           0x0000000020000034        0x0 Drivers/STM32F4xx_StdPeriph_Driver/src/stm32f4xx_rcc.o
 .bss           0x0000000020000034        0x0 Drivers/STM32F4xx_StdPeriph_Driver/src/stm32f4xx_rng.o
 .bss           0x0000000020000034        0x0 Drivers/STM32F4xx_StdPeriph_Driver/src/stm32f4xx_rtc.o
 .bss           0x0000000020000034        0x0 Drivers/STM32F4xx_StdPeriph_Driver/src/stm32f4xx_sdio.o
 .bss           0x0000000020000034        0x0 Drivers/STM32F4xx_StdPeriph_Driver/src/stm32f4xx_spi.o
 .bss           0x0000000020000034        0x0 Drivers/STM32F4xx_StdPeriph_Driver/src/stm32f4xx_syscfg.o
 .bss           0x0000000020000034        0x0 Drivers/STM32F4xx_StdPeriph_Driver/src/stm32f4xx_tim.o
 .bss           0x0000000020000034        0x0 Drivers/STM32F4xx_StdPeriph_Driver/src/stm32f4xx_usart.o
 .bss           0x0000000020000034        0x0 Drivers/STM32F4xx_StdPeriph_Driver/src/stm32f4xx_wwdg.o
 .bss           0x0000000020000034        0x0 src/main.o
 .bss           0x0000000020000034        0x0 src/startup_stm32f411xe.o
 .bss           0x0000000020000034        0x0 src/stm32f4xx_it.o
 .bss           0x0000000020000034        0x0 src/system_stm32f4xx.o
 .bss           0x0000000020000034        0x0 src/tiny_printf.o
 .bss           0x0000000020000034        0x0 /opt/Atollic_TrueSTUDIO_for_STM32_x86_64_9.3.0/ARMTools/bin/../lib/gcc/arm-atollic-eabi/6.3.1/../../../../arm-atollic-eabi/lib/armv7e-m/fpu/libc_nano.a(lib_a-init.o)
 .bss           0x0000000020000034        0x0 /opt/Atollic_TrueSTUDIO_for_STM32_x86_64_9.3.0/ARMTools/bin/../lib/gcc/arm-atollic-eabi/6.3.1/../../../../arm-atollic-eabi/lib/armv7e-m/fpu/libc_nano.a(lib_a-strlen.o)
 .bss           0x0000000020000034        0x0 /opt/Atollic_TrueSTUDIO_for_STM32_x86_64_9.3.0/ARMTools/bin/../lib/gcc/arm-atollic-eabi/6.3.1/../../../../arm-atollic-eabi/lib/armv7e-m/fpu/libnosys.a(write.o)
 .bss           0x0000000020000034        0x0 /opt/Atollic_TrueSTUDIO_for_STM32_x86_64_9.3.0/ARMTools/bin/../lib/gcc/arm-atollic-eabi/6.3.1/../../../../arm-atollic-eabi/lib/armv7e-m/fpu/libnosys.a(errno.o)
 .bss           0x0000000020000034        0x0 /opt/Atollic_TrueSTUDIO_for_STM32_x86_64_9.3.0/ARMTools/bin/../lib/gcc/arm-atollic-eabi/6.3.1/armv7e-m/fpu/crtend.o
 .bss           0x0000000020000034        0x0 /opt/Atollic_TrueSTUDIO_for_STM32_x86_64_9.3.0/ARMTools/bin/../lib/gcc/arm-atollic-eabi/6.3.1/armv7e-m/fpu/crtn.o
 *(.bss*)
 *(COMMON)
 COMMON         0x0000000020000034        0x4 src/main.o
                0x0000000020000034                TimingDelay
 COMMON         0x0000000020000038        0x4 /opt/Atollic_TrueSTUDIO_for_STM32_x86_64_9.3.0/ARMTools/bin/../lib/gcc/arm-atollic-eabi/6.3.1/../../../../arm-atollic-eabi/lib/armv7e-m/fpu/libnosys.a(errno.o)
                0x0000000020000038                errno
                0x000000002000003c                . = ALIGN (0x4)
                0x000000002000003c                _ebss = .
                0x000000002000003c                __bss_end__ = _ebss

._user_heap_stack
                0x000000002000003c      0x400 load address 0x000000000800eec8
                0x000000002000003c                . = ALIGN (0x4)
                [!provide]                        PROVIDE (end, .)
                [!provide]                        PROVIDE (_end, .)
                0x000000002000003c                . = (. + _Min_Heap_Size)
                0x000000002000043c                . = (. + _Min_Stack_Size)
 *fill*         0x000000002000003c      0x400 
                0x000000002000043c                . = ALIGN (0x4)

.memory_b1_text
 *(.mb1text)
 *(.mb1text*)
 *(.mb1rodata)
 *(.mb1rodata*)

/DISCARD/
 libc.a(*)
 libm.a(*)
 libgcc.a(*)

.ARM.attributes
                0x0000000000000000       0x30
 *(.ARM.attributes)
 .ARM.attributes
                0x0000000000000000       0x22 /opt/Atollic_TrueSTUDIO_for_STM32_x86_64_9.3.0/ARMTools/bin/../lib/gcc/arm-atollic-eabi/6.3.1/armv7e-m/fpu/crti.o
 .ARM.attributes
                0x0000000000000022       0x34 /opt/Atollic_TrueSTUDIO_for_STM32_x86_64_9.3.0/ARMTools/bin/../lib/gcc/arm-atollic-eabi/6.3.1/armv7e-m/fpu/crtbegin.o
 .ARM.attributes
                0x0000000000000056       0x39 Drivers/STM32F4xx_StdPeriph_Driver/src/misc.o
 .ARM.attributes
                0x000000000000008f       0x39 Drivers/STM32F4xx_StdPeriph_Driver/src/stm32f4xx_adc.o
 .ARM.attributes
                0x00000000000000c8       0x39 Drivers/STM32F4xx_StdPeriph_Driver/src/stm32f4xx_can.o
 .ARM.attributes
                0x0000000000000101       0x39 Drivers/STM32F4xx_StdPeriph_Driver/src/stm32f4xx_crc.o
 .ARM.attributes
                0x000000000000013a       0x39 Drivers/STM32F4xx_StdPeriph_Driver/src/stm32f4xx_cryp.o
 .ARM.attributes
                0x0000000000000173       0x39 Drivers/STM32F4xx_StdPeriph_Driver/src/stm32f4xx_cryp_aes.o
 .ARM.attributes
                0x00000000000001ac       0x39 Drivers/STM32F4xx_StdPeriph_Driver/src/stm32f4xx_cryp_des.o
 .ARM.attributes
                0x00000000000001e5       0x39 Drivers/STM32F4xx_StdPeriph_Driver/src/stm32f4xx_cryp_tdes.o
 .ARM.attributes
                0x000000000000021e       0x39 Drivers/STM32F4xx_StdPeriph_Driver/src/stm32f4xx_dac.o
 .ARM.attributes
                0x0000000000000257       0x39 Drivers/STM32F4xx_StdPeriph_Driver/src/stm32f4xx_dbgmcu.o
 .ARM.attributes
                0x0000000000000290       0x39 Drivers/STM32F4xx_StdPeriph_Driver/src/stm32f4xx_dcmi.o
 .ARM.attributes
                0x00000000000002c9       0x39 Drivers/STM32F4xx_StdPeriph_Driver/src/stm32f4xx_dma.o
 .ARM.attributes
                0x0000000000000302       0x39 Drivers/STM32F4xx_StdPeriph_Driver/src/stm32f4xx_exti.o
 .ARM.attributes
                0x000000000000033b       0x39 Drivers/STM32F4xx_StdPeriph_Driver/src/stm32f4xx_flash.o
 .ARM.attributes
                0x0000000000000374       0x39 Drivers/STM32F4xx_StdPeriph_Driver/src/stm32f4xx_fsmc.o
 .ARM.attributes
                0x00000000000003ad       0x39 Drivers/STM32F4xx_StdPeriph_Driver/src/stm32f4xx_gpio.o
 .ARM.attributes
                0x00000000000003e6       0x39 Drivers/STM32F4xx_StdPeriph_Driver/src/stm32f4xx_hash.o
 .ARM.attributes
                0x000000000000041f       0x39 Drivers/STM32F4xx_StdPeriph_Driver/src/stm32f4xx_hash_md5.o
 .ARM.attributes
                0x0000000000000458       0x39 Drivers/STM32F4xx_StdPeriph_Driver/src/stm32f4xx_hash_sha1.o
 .ARM.attributes
                0x0000000000000491       0x39 Drivers/STM32F4xx_StdPeriph_Driver/src/stm32f4xx_i2c.o
 .ARM.attributes
                0x00000000000004ca       0x39 Drivers/STM32F4xx_StdPeriph_Driver/src/stm32f4xx_iwdg.o
 .ARM.attributes
                0x0000000000000503       0x39 Drivers/STM32F4xx_StdPeriph_Driver/src/stm32f4xx_pwr.o
 .ARM.attributes
                0x000000000000053c       0x39 Drivers/STM32F4xx_StdPeriph_Driver/src/stm32f4xx_rcc.o
 .ARM.attributes
                0x0000000000000575       0x39 Drivers/STM32F4xx_StdPeriph_Driver/src/stm32f4xx_rng.o
 .ARM.attributes
                0x00000000000005ae       0x39 Drivers/STM32F4xx_StdPeriph_Driver/src/stm32f4xx_rtc.o
 .ARM.attributes
                0x00000000000005e7       0x39 Drivers/STM32F4xx_StdPeriph_Driver/src/stm32f4xx_sdio.o
 .ARM.attributes
                0x0000000000000620       0x39 Drivers/STM32F4xx_StdPeriph_Driver/src/stm32f4xx_spi.o
 .ARM.attributes
                0x0000000000000659       0x39 Drivers/STM32F4xx_StdPeriph_Driver/src/stm32f4xx_syscfg.o
 .ARM.attributes
                0x0000000000000692       0x39 Drivers/STM32F4xx_StdPeriph_Driver/src/stm32f4xx_tim.o
 .ARM.attributes
                0x00000000000006cb       0x39 Drivers/STM32F4xx_StdPeriph_Driver/src/stm32f4xx_usart.o
 .ARM.attributes
                0x0000000000000704       0x39 Drivers/STM32F4xx_StdPeriph_Driver/src/stm32f4xx_wwdg.o
 .ARM.attributes
                0x000000000000073d       0x39 src/main.o
 .ARM.attributes
                0x0000000000000776       0x21 src/startup_stm32f411xe.o
 .ARM.attributes
                0x0000000000000797       0x39 src/stm32f4xx_it.o
 .ARM.attributes
                0x00000000000007d0       0x39 src/system_stm32f4xx.o
 .ARM.attributes
                0x0000000000000809       0x39 src/tiny_printf.o
 .ARM.attributes
                0x0000000000000842       0x34 /opt/Atollic_TrueSTUDIO_for_STM32_x86_64_9.3.0/ARMTools/bin/../lib/gcc/arm-atollic-eabi/6.3.1/../../../../arm-atollic-eabi/lib/armv7e-m/fpu/libc_nano.a(lib_a-init.o)
 .ARM.attributes
                0x0000000000000876       0x1b /opt/Atollic_TrueSTUDIO_for_STM32_x86_64_9.3.0/ARMTools/bin/../lib/gcc/arm-atollic-eabi/6.3.1/../../../../arm-atollic-eabi/lib/armv7e-m/fpu/libc_nano.a(lib_a-strlen.o)
 .ARM.attributes
                0x0000000000000891       0x34 /opt/Atollic_TrueSTUDIO_for_STM32_x86_64_9.3.0/ARMTools/bin/../lib/gcc/arm-atollic-eabi/6.3.1/../../../../arm-atollic-eabi/lib/armv7e-m/fpu/libnosys.a(write.o)
 .ARM.attributes
                0x00000000000008c5       0x34 /opt/Atollic_TrueSTUDIO_for_STM32_x86_64_9.3.0/ARMTools/bin/../lib/gcc/arm-atollic-eabi/6.3.1/../../../../arm-atollic-eabi/lib/armv7e-m/fpu/libnosys.a(errno.o)
 .ARM.attributes
                0x00000000000008f9       0x34 /opt/Atollic_TrueSTUDIO_for_STM32_x86_64_9.3.0/ARMTools/bin/../lib/gcc/arm-atollic-eabi/6.3.1/armv7e-m/fpu/crtend.o
 .ARM.attributes
                0x000000000000092d       0x22 /opt/Atollic_TrueSTUDIO_for_STM32_x86_64_9.3.0/ARMTools/bin/../lib/gcc/arm-atollic-eabi/6.3.1/armv7e-m/fpu/crtn.o
OUTPUT(blink_f411.elf elf32-littlearm)

.debug_info     0x0000000000000000    0x11611
 .debug_info    0x0000000000000000      0x54d Drivers/STM32F4xx_StdPeriph_Driver/src/misc.o
 .debug_info    0x000000000000054d      0xc4f Drivers/STM32F4xx_StdPeriph_Driver/src/stm32f4xx_adc.o
 .debug_info    0x000000000000119c      0xbaf Drivers/STM32F4xx_StdPeriph_Driver/src/stm32f4xx_can.o
 .debug_info    0x0000000000001d4b      0x217 Drivers/STM32F4xx_StdPeriph_Driver/src/stm32f4xx_crc.o
 .debug_info    0x0000000000001f62      0x889 Drivers/STM32F4xx_StdPeriph_Driver/src/stm32f4xx_cryp.o
 .debug_info    0x00000000000027eb     0x16b2 Drivers/STM32F4xx_StdPeriph_Driver/src/stm32f4xx_cryp_aes.o
 .debug_info    0x0000000000003e9d      0x4f2 Drivers/STM32F4xx_StdPeriph_Driver/src/stm32f4xx_cryp_des.o
 .debug_info    0x000000000000438f      0x5d7 Drivers/STM32F4xx_StdPeriph_Driver/src/stm32f4xx_cryp_tdes.o
 .debug_info    0x0000000000004966      0x654 Drivers/STM32F4xx_StdPeriph_Driver/src/stm32f4xx_dac.o
 .debug_info    0x0000000000004fba      0x1ef Drivers/STM32F4xx_StdPeriph_Driver/src/stm32f4xx_dbgmcu.o
 .debug_info    0x00000000000051a9      0x563 Drivers/STM32F4xx_StdPeriph_Driver/src/stm32f4xx_dcmi.o
 .debug_info    0x000000000000570c      0x74c Drivers/STM32F4xx_StdPeriph_Driver/src/stm32f4xx_dma.o
 .debug_info    0x0000000000005e58      0x366 Drivers/STM32F4xx_StdPeriph_Driver/src/stm32f4xx_exti.o
 .debug_info    0x00000000000061be      0x79a Drivers/STM32F4xx_StdPeriph_Driver/src/stm32f4xx_flash.o
 .debug_info    0x0000000000006958      0x908 Drivers/STM32F4xx_StdPeriph_Driver/src/stm32f4xx_fsmc.o
 .debug_info    0x0000000000007260      0x628 Drivers/STM32F4xx_StdPeriph_Driver/src/stm32f4xx_gpio.o
 .debug_info    0x0000000000007888      0x5d2 Drivers/STM32F4xx_StdPeriph_Driver/src/stm32f4xx_hash.o
 .debug_info    0x0000000000007e5a      0x467 Drivers/STM32F4xx_StdPeriph_Driver/src/stm32f4xx_hash_md5.o
 .debug_info    0x00000000000082c1      0x4a1 Drivers/STM32F4xx_StdPeriph_Driver/src/stm32f4xx_hash_sha1.o
 .debug_info    0x0000000000008762      0xb9e Drivers/STM32F4xx_StdPeriph_Driver/src/stm32f4xx_i2c.o
 .debug_info    0x0000000000009300      0x219 Drivers/STM32F4xx_StdPeriph_Driver/src/stm32f4xx_iwdg.o
 .debug_info    0x0000000000009519      0x521 Drivers/STM32F4xx_StdPeriph_Driver/src/stm32f4xx_pwr.o
 .debug_info    0x0000000000009a3a      0xc98 Drivers/STM32F4xx_StdPeriph_Driver/src/stm32f4xx_rcc.o
 .debug_info    0x000000000000a6d2      0x296 Drivers/STM32F4xx_StdPeriph_Driver/src/stm32f4xx_rng.o
 .debug_info    0x000000000000a968     0x10f6 Drivers/STM32F4xx_StdPeriph_Driver/src/stm32f4xx_rtc.o
 .debug_info    0x000000000000ba5e      0x80c Drivers/STM32F4xx_StdPeriph_Driver/src/stm32f4xx_sdio.o
 .debug_info    0x000000000000c26a      0xb1a Drivers/STM32F4xx_StdPeriph_Driver/src/stm32f4xx_spi.o
 .debug_info    0x000000000000cd84      0x283 Drivers/STM32F4xx_StdPeriph_Driver/src/stm32f4xx_syscfg.o
 .debug_info    0x000000000000d007     0x1c74 Drivers/STM32F4xx_StdPeriph_Driver/src/stm32f4xx_tim.o
 .debug_info    0x000000000000ec7b      0x9d5 Drivers/STM32F4xx_StdPeriph_Driver/src/stm32f4xx_usart.o
 .debug_info    0x000000000000f650      0x25b Drivers/STM32F4xx_StdPeriph_Driver/src/stm32f4xx_wwdg.o
 .debug_info    0x000000000000f8ab      0xa1e src/main.o
 .debug_info    0x00000000000102c9       0x77 src/startup_stm32f411xe.o
 .debug_info    0x0000000000010340      0x18f src/stm32f4xx_it.o
 .debug_info    0x00000000000104cf      0x4ca src/system_stm32f4xx.o
 .debug_info    0x0000000000010999      0xc78 src/tiny_printf.o

.debug_abbrev   0x0000000000000000     0x369e
 .debug_abbrev  0x0000000000000000      0x172 Drivers/STM32F4xx_StdPeriph_Driver/src/misc.o
 .debug_abbrev  0x0000000000000172      0x1ab Drivers/STM32F4xx_StdPeriph_Driver/src/stm32f4xx_adc.o
 .debug_abbrev  0x000000000000031d      0x206 Drivers/STM32F4xx_StdPeriph_Driver/src/stm32f4xx_can.o
 .debug_abbrev  0x0000000000000523      0x127 Drivers/STM32F4xx_StdPeriph_Driver/src/stm32f4xx_crc.o
 .debug_abbrev  0x000000000000064a      0x1b7 Drivers/STM32F4xx_StdPeriph_Driver/src/stm32f4xx_cryp.o
 .debug_abbrev  0x0000000000000801      0x1dc Drivers/STM32F4xx_StdPeriph_Driver/src/stm32f4xx_cryp_aes.o
 .debug_abbrev  0x00000000000009dd      0x152 Drivers/STM32F4xx_StdPeriph_Driver/src/stm32f4xx_cryp_des.o
 .debug_abbrev  0x0000000000000b2f      0x161 Drivers/STM32F4xx_StdPeriph_Driver/src/stm32f4xx_cryp_tdes.o
 .debug_abbrev  0x0000000000000c90      0x191 Drivers/STM32F4xx_StdPeriph_Driver/src/stm32f4xx_dac.o
 .debug_abbrev  0x0000000000000e21       0xf3 Drivers/STM32F4xx_StdPeriph_Driver/src/stm32f4xx_dbgmcu.o
 .debug_abbrev  0x0000000000000f14      0x19c Drivers/STM32F4xx_StdPeriph_Driver/src/stm32f4xx_dcmi.o
 .debug_abbrev  0x00000000000010b0      0x168 Drivers/STM32F4xx_StdPeriph_Driver/src/stm32f4xx_dma.o
 .debug_abbrev  0x0000000000001218      0x1bc Drivers/STM32F4xx_StdPeriph_Driver/src/stm32f4xx_exti.o
 .debug_abbrev  0x00000000000013d4      0x1c5 Drivers/STM32F4xx_StdPeriph_Driver/src/stm32f4xx_flash.o
 .debug_abbrev  0x0000000000001599      0x19d Drivers/STM32F4xx_StdPeriph_Driver/src/stm32f4xx_fsmc.o
 .debug_abbrev  0x0000000000001736      0x1b8 Drivers/STM32F4xx_StdPeriph_Driver/src/stm32f4xx_gpio.o
 .debug_abbrev  0x00000000000018ee      0x1eb Drivers/STM32F4xx_StdPeriph_Driver/src/stm32f4xx_hash.o
 .debug_abbrev  0x0000000000001ad9      0x184 Drivers/STM32F4xx_StdPeriph_Driver/src/stm32f4xx_hash_md5.o
 .debug_abbrev  0x0000000000001c5d      0x184 Drivers/STM32F4xx_StdPeriph_Driver/src/stm32f4xx_hash_sha1.o
 .debug_abbrev  0x0000000000001de1      0x191 Drivers/STM32F4xx_StdPeriph_Driver/src/stm32f4xx_i2c.o
 .debug_abbrev  0x0000000000001f72      0x12e Drivers/STM32F4xx_StdPeriph_Driver/src/stm32f4xx_iwdg.o
 .debug_abbrev  0x00000000000020a0      0x194 Drivers/STM32F4xx_StdPeriph_Driver/src/stm32f4xx_pwr.o
 .debug_abbrev  0x0000000000002234      0x1f8 Drivers/STM32F4xx_StdPeriph_Driver/src/stm32f4xx_rcc.o
 .debug_abbrev  0x000000000000242c      0x159 Drivers/STM32F4xx_StdPeriph_Driver/src/stm32f4xx_rng.o
 .debug_abbrev  0x0000000000002585      0x1dd Drivers/STM32F4xx_StdPeriph_Driver/src/stm32f4xx_rtc.o
 .debug_abbrev  0x0000000000002762      0x18c Drivers/STM32F4xx_StdPeriph_Driver/src/stm32f4xx_sdio.o
 .debug_abbrev  0x00000000000028ee      0x17a Drivers/STM32F4xx_StdPeriph_Driver/src/stm32f4xx_spi.o
 .debug_abbrev  0x0000000000002a68      0x146 Drivers/STM32F4xx_StdPeriph_Driver/src/stm32f4xx_syscfg.o
 .debug_abbrev  0x0000000000002bae      0x19a Drivers/STM32F4xx_StdPeriph_Driver/src/stm32f4xx_tim.o
 .debug_abbrev  0x0000000000002d48      0x182 Drivers/STM32F4xx_StdPeriph_Driver/src/stm32f4xx_usart.o
 .debug_abbrev  0x0000000000002eca      0x155 Drivers/STM32F4xx_StdPeriph_Driver/src/stm32f4xx_wwdg.o
 .debug_abbrev  0x000000000000301f      0x23b src/main.o
 .debug_abbrev  0x000000000000325a       0x12 src/startup_stm32f411xe.o
 .debug_abbrev  0x000000000000326c       0xb1 src/stm32f4xx_it.o
 .debug_abbrev  0x000000000000331d      0x11f src/system_stm32f4xx.o
 .debug_abbrev  0x000000000000343c      0x262 src/tiny_printf.o

.debug_aranges  0x0000000000000000      0x488
 .debug_aranges
                0x0000000000000000       0x20 Drivers/STM32F4xx_StdPeriph_Driver/src/misc.o
 .debug_aranges
                0x0000000000000020       0x20 Drivers/STM32F4xx_StdPeriph_Driver/src/stm32f4xx_adc.o
 .debug_aranges
                0x0000000000000040       0x20 Drivers/STM32F4xx_StdPeriph_Driver/src/stm32f4xx_can.o
 .debug_aranges
                0x0000000000000060       0x20 Drivers/STM32F4xx_StdPeriph_Driver/src/stm32f4xx_crc.o
 .debug_aranges
                0x0000000000000080       0x20 Drivers/STM32F4xx_StdPeriph_Driver/src/stm32f4xx_cryp.o
 .debug_aranges
                0x00000000000000a0       0x20 Drivers/STM32F4xx_StdPeriph_Driver/src/stm32f4xx_cryp_aes.o
 .debug_aranges
                0x00000000000000c0       0x20 Drivers/STM32F4xx_StdPeriph_Driver/src/stm32f4xx_cryp_des.o
 .debug_aranges
                0x00000000000000e0       0x20 Drivers/STM32F4xx_StdPeriph_Driver/src/stm32f4xx_cryp_tdes.o
 .debug_aranges
                0x0000000000000100       0x20 Drivers/STM32F4xx_StdPeriph_Driver/src/stm32f4xx_dac.o
 .debug_aranges
                0x0000000000000120       0x20 Drivers/STM32F4xx_StdPeriph_Driver/src/stm32f4xx_dbgmcu.o
 .debug_aranges
                0x0000000000000140       0x20 Drivers/STM32F4xx_StdPeriph_Driver/src/stm32f4xx_dcmi.o
 .debug_aranges
                0x0000000000000160       0x20 Drivers/STM32F4xx_StdPeriph_Driver/src/stm32f4xx_dma.o
 .debug_aranges
                0x0000000000000180       0x20 Drivers/STM32F4xx_StdPeriph_Driver/src/stm32f4xx_exti.o
 .debug_aranges
                0x00000000000001a0       0x20 Drivers/STM32F4xx_StdPeriph_Driver/src/stm32f4xx_flash.o
 .debug_aranges
                0x00000000000001c0       0x20 Drivers/STM32F4xx_StdPeriph_Driver/src/stm32f4xx_fsmc.o
 .debug_aranges
                0x00000000000001e0       0x20 Drivers/STM32F4xx_StdPeriph_Driver/src/stm32f4xx_gpio.o
 .debug_aranges
                0x0000000000000200       0x20 Drivers/STM32F4xx_StdPeriph_Driver/src/stm32f4xx_hash.o
 .debug_aranges
                0x0000000000000220       0x20 Drivers/STM32F4xx_StdPeriph_Driver/src/stm32f4xx_hash_md5.o
 .debug_aranges
                0x0000000000000240       0x20 Drivers/STM32F4xx_StdPeriph_Driver/src/stm32f4xx_hash_sha1.o
 .debug_aranges
                0x0000000000000260       0x20 Drivers/STM32F4xx_StdPeriph_Driver/src/stm32f4xx_i2c.o
 .debug_aranges
                0x0000000000000280       0x20 Drivers/STM32F4xx_StdPeriph_Driver/src/stm32f4xx_iwdg.o
 .debug_aranges
                0x00000000000002a0       0x20 Drivers/STM32F4xx_StdPeriph_Driver/src/stm32f4xx_pwr.o
 .debug_aranges
                0x00000000000002c0       0x20 Drivers/STM32F4xx_StdPeriph_Driver/src/stm32f4xx_rcc.o
 .debug_aranges
                0x00000000000002e0       0x20 Drivers/STM32F4xx_StdPeriph_Driver/src/stm32f4xx_rng.o
 .debug_aranges
                0x0000000000000300       0x20 Drivers/STM32F4xx_StdPeriph_Driver/src/stm32f4xx_rtc.o
 .debug_aranges
                0x0000000000000320       0x20 Drivers/STM32F4xx_StdPeriph_Driver/src/stm32f4xx_sdio.o
 .debug_aranges
                0x0000000000000340       0x20 Drivers/STM32F4xx_StdPeriph_Driver/src/stm32f4xx_spi.o
 .debug_aranges
                0x0000000000000360       0x20 Drivers/STM32F4xx_StdPeriph_Driver/src/stm32f4xx_syscfg.o
 .debug_aranges
                0x0000000000000380       0x20 Drivers/STM32F4xx_StdPeriph_Driver/src/stm32f4xx_tim.o
 .debug_aranges
                0x00000000000003a0       0x20 Drivers/STM32F4xx_StdPeriph_Driver/src/stm32f4xx_usart.o
 .debug_aranges
                0x00000000000003c0       0x20 Drivers/STM32F4xx_StdPeriph_Driver/src/stm32f4xx_wwdg.o
 .debug_aranges
                0x00000000000003e0       0x20 src/main.o
 .debug_aranges
                0x0000000000000400       0x28 src/startup_stm32f411xe.o
 .debug_aranges
                0x0000000000000428       0x20 src/stm32f4xx_it.o
 .debug_aranges
                0x0000000000000448       0x20 src/system_stm32f4xx.o
 .debug_aranges
                0x0000000000000468       0x20 src/tiny_printf.o

.debug_line     0x0000000000000000     0x6b93
 .debug_line    0x0000000000000000      0x1ed Drivers/STM32F4xx_StdPeriph_Driver/src/misc.o
 .debug_line    0x00000000000001ed      0x358 Drivers/STM32F4xx_StdPeriph_Driver/src/stm32f4xx_adc.o
 .debug_line    0x0000000000000545      0x40a Drivers/STM32F4xx_StdPeriph_Driver/src/stm32f4xx_can.o
 .debug_line    0x000000000000094f      0x1b8 Drivers/STM32F4xx_StdPeriph_Driver/src/stm32f4xx_crc.o
 .debug_line    0x0000000000000b07      0x2d4 Drivers/STM32F4xx_StdPeriph_Driver/src/stm32f4xx_cryp.o
 .debug_line    0x0000000000000ddb      0xdca Drivers/STM32F4xx_StdPeriph_Driver/src/stm32f4xx_cryp_aes.o
 .debug_line    0x0000000000001ba5      0x2df Drivers/STM32F4xx_StdPeriph_Driver/src/stm32f4xx_cryp_des.o
 .debug_line    0x0000000000001e84      0x350 Drivers/STM32F4xx_StdPeriph_Driver/src/stm32f4xx_cryp_tdes.o
 .debug_line    0x00000000000021d4      0x265 Drivers/STM32F4xx_StdPeriph_Driver/src/stm32f4xx_dac.o
 .debug_line    0x0000000000002439      0x1b1 Drivers/STM32F4xx_StdPeriph_Driver/src/stm32f4xx_dbgmcu.o
 .debug_line    0x00000000000025ea      0x263 Drivers/STM32F4xx_StdPeriph_Driver/src/stm32f4xx_dcmi.o
 .debug_line    0x000000000000284d      0x328 Drivers/STM32F4xx_StdPeriph_Driver/src/stm32f4xx_dma.o
 .debug_line    0x0000000000002b75      0x229 Drivers/STM32F4xx_StdPeriph_Driver/src/stm32f4xx_exti.o
 .debug_line    0x0000000000002d9e      0x2f0 Drivers/STM32F4xx_StdPeriph_Driver/src/stm32f4xx_flash.o
 .debug_line    0x000000000000308e      0x381 Drivers/STM32F4xx_StdPeriph_Driver/src/stm32f4xx_fsmc.o
 .debug_line    0x000000000000340f      0x29a Drivers/STM32F4xx_StdPeriph_Driver/src/stm32f4xx_gpio.o
 .debug_line    0x00000000000036a9      0x27e Drivers/STM32F4xx_StdPeriph_Driver/src/stm32f4xx_hash.o
 .debug_line    0x0000000000003927      0x345 Drivers/STM32F4xx_StdPeriph_Driver/src/stm32f4xx_hash_md5.o
 .debug_line    0x0000000000003c6c      0x362 Drivers/STM32F4xx_StdPeriph_Driver/src/stm32f4xx_hash_sha1.o
 .debug_line    0x0000000000003fce      0x33a Drivers/STM32F4xx_StdPeriph_Driver/src/stm32f4xx_i2c.o
 .debug_line    0x0000000000004308      0x1b2 Drivers/STM32F4xx_StdPeriph_Driver/src/stm32f4xx_iwdg.o
 .debug_line    0x00000000000044ba      0x20a Drivers/STM32F4xx_StdPeriph_Driver/src/stm32f4xx_pwr.o
 .debug_line    0x00000000000046c4      0x360 Drivers/STM32F4xx_StdPeriph_Driver/src/stm32f4xx_rcc.o
 .debug_line    0x0000000000004a24      0x1c7 Drivers/STM32F4xx_StdPeriph_Driver/src/stm32f4xx_rng.o
 .debug_line    0x0000000000004beb      0x52b Drivers/STM32F4xx_StdPeriph_Driver/src/stm32f4xx_rtc.o
 .debug_line    0x0000000000005116      0x299 Drivers/STM32F4xx_StdPeriph_Driver/src/stm32f4xx_sdio.o
 .debug_line    0x00000000000053af      0x317 Drivers/STM32F4xx_StdPeriph_Driver/src/stm32f4xx_spi.o
 .debug_line    0x00000000000056c6      0x1b8 Drivers/STM32F4xx_StdPeriph_Driver/src/stm32f4xx_syscfg.o
 .debug_line    0x000000000000587e      0x5ff Drivers/STM32F4xx_StdPeriph_Driver/src/stm32f4xx_tim.o
 .debug_line    0x0000000000005e7d      0x344 Drivers/STM32F4xx_StdPeriph_Driver/src/stm32f4xx_usart.o
 .debug_line    0x00000000000061c1      0x1c1 Drivers/STM32F4xx_StdPeriph_Driver/src/stm32f4xx_wwdg.o
 .debug_line    0x0000000000006382      0x238 src/main.o
 .debug_line    0x00000000000065ba       0x7b src/startup_stm32f411xe.o
 .debug_line    0x0000000000006635      0x19e src/stm32f4xx_it.o
 .debug_line    0x00000000000067d3      0x18a src/system_stm32f4xx.o
 .debug_line    0x000000000000695d      0x236 src/tiny_printf.o

.debug_str      0x0000000000000000     0x6f38
 .debug_str     0x0000000000000000      0x3d6 Drivers/STM32F4xx_StdPeriph_Driver/src/misc.o
                                        0x42f (size before relaxing)
 .debug_str     0x00000000000003d6      0x640 Drivers/STM32F4xx_StdPeriph_Driver/src/stm32f4xx_adc.o
                                        0x865 (size before relaxing)
 .debug_str     0x0000000000000a16      0x522 Drivers/STM32F4xx_StdPeriph_Driver/src/stm32f4xx_can.o
                                        0x79f (size before relaxing)
 .debug_str     0x0000000000000f38       0xc4 Drivers/STM32F4xx_StdPeriph_Driver/src/stm32f4xx_crc.o
                                        0x2ac (size before relaxing)
 .debug_str     0x0000000000000ffc      0x49c Drivers/STM32F4xx_StdPeriph_Driver/src/stm32f4xx_cryp.o
                                        0x711 (size before relaxing)
 .debug_str     0x0000000000001498      0x1da Drivers/STM32F4xx_StdPeriph_Driver/src/stm32f4xx_cryp_aes.o
                                        0x51a (size before relaxing)
 .debug_str     0x0000000000001672       0x5c Drivers/STM32F4xx_StdPeriph_Driver/src/stm32f4xx_cryp_des.o
                                        0x42c (size before relaxing)
 .debug_str     0x00000000000016ce       0xac Drivers/STM32F4xx_StdPeriph_Driver/src/stm32f4xx_cryp_tdes.o
                                        0x432 (size before relaxing)
 .debug_str     0x000000000000177a      0x272 Drivers/STM32F4xx_StdPeriph_Driver/src/stm32f4xx_dac.o
                                        0x4b4 (size before relaxing)
 .debug_str     0x00000000000019ec       0xd0 Drivers/STM32F4xx_StdPeriph_Driver/src/stm32f4xx_dbgmcu.o
                                        0x2a1 (size before relaxing)
 .debug_str     0x0000000000001abc      0x304 Drivers/STM32F4xx_StdPeriph_Driver/src/stm32f4xx_dcmi.o
                                        0x53a (size before relaxing)
 .debug_str     0x0000000000001dc0      0x378 Drivers/STM32F4xx_StdPeriph_Driver/src/stm32f4xx_dma.o
                                        0x5a3 (size before relaxing)
 .debug_str     0x0000000000002138      0x1c1 Drivers/STM32F4xx_StdPeriph_Driver/src/stm32f4xx_exti.o
                                        0x3ba (size before relaxing)
 .debug_str     0x00000000000022f9      0x3e0 Drivers/STM32F4xx_StdPeriph_Driver/src/stm32f4xx_flash.o
                                        0x61f (size before relaxing)
 .debug_str     0x00000000000026d9      0x5cf Drivers/STM32F4xx_StdPeriph_Driver/src/stm32f4xx_fsmc.o
                                        0x7eb (size before relaxing)
 .debug_str     0x0000000000002ca8      0x311 Drivers/STM32F4xx_StdPeriph_Driver/src/stm32f4xx_gpio.o
                                        0x504 (size before relaxing)
 .debug_str     0x0000000000002fb9      0x28d Drivers/STM32F4xx_StdPeriph_Driver/src/stm32f4xx_hash.o
                                        0x4bc (size before relaxing)
 .debug_str     0x0000000000003246       0xa8 Drivers/STM32F4xx_StdPeriph_Driver/src/stm32f4xx_hash_md5.o
                                        0x34c (size before relaxing)
 .debug_str     0x00000000000032ee       0x82 Drivers/STM32F4xx_StdPeriph_Driver/src/stm32f4xx_hash_sha1.o
                                        0x351 (size before relaxing)
 .debug_str     0x0000000000003370      0x473 Drivers/STM32F4xx_StdPeriph_Driver/src/stm32f4xx_i2c.o
                                        0x713 (size before relaxing)
 .debug_str     0x00000000000037e3       0xdc Drivers/STM32F4xx_StdPeriph_Driver/src/stm32f4xx_iwdg.o
                                        0x2cd (size before relaxing)
 .debug_str     0x00000000000038bf      0x17b Drivers/STM32F4xx_StdPeriph_Driver/src/stm32f4xx_pwr.o
                                        0x3de (size before relaxing)
 .debug_str     0x0000000000003a3a      0x5e6 Drivers/STM32F4xx_StdPeriph_Driver/src/stm32f4xx_rcc.o
                                        0x8da (size before relaxing)
 .debug_str     0x0000000000004020       0xd3 Drivers/STM32F4xx_StdPeriph_Driver/src/stm32f4xx_rng.o
                                        0x2da (size before relaxing)
 .debug_str     0x00000000000040f3      0x958 Drivers/STM32F4xx_StdPeriph_Driver/src/stm32f4xx_rtc.o
                                        0xba9 (size before relaxing)
 .debug_str     0x0000000000004a4b      0x47a Drivers/STM32F4xx_StdPeriph_Driver/src/stm32f4xx_sdio.o
                                        0x6a1 (size before relaxing)
 .debug_str     0x0000000000004ec5      0x38d Drivers/STM32F4xx_StdPeriph_Driver/src/stm32f4xx_spi.o
                                        0x6eb (size before relaxing)
 .debug_str     0x0000000000005252      0x14e Drivers/STM32F4xx_StdPeriph_Driver/src/stm32f4xx_syscfg.o
                                        0x355 (size before relaxing)
 .debug_str     0x00000000000053a0      0xb4c Drivers/STM32F4xx_StdPeriph_Driver/src/stm32f4xx_tim.o
                                        0xe31 (size before relaxing)
 .debug_str     0x0000000000005eec      0x424 Drivers/STM32F4xx_StdPeriph_Driver/src/stm32f4xx_usart.o
                                        0x6f0 (size before relaxing)
 .debug_str     0x0000000000006310       0xd8 Drivers/STM32F4xx_StdPeriph_Driver/src/stm32f4xx_wwdg.o
                                        0x2d8 (size before relaxing)
 .debug_str     0x00000000000063e8      0x5ca src/main.o
                                        0xb63 (size before relaxing)
 .debug_str     0x00000000000069b2       0xbb src/stm32f4xx_it.o
                                        0x276 (size before relaxing)
 .debug_str     0x0000000000006a6d       0x3b src/system_stm32f4xx.o
                                        0x36f (size before relaxing)
 .debug_str     0x0000000000006aa8      0x490 src/tiny_printf.o
                                        0x664 (size before relaxing)

.comment        0x0000000000000000       0x7c
 .comment       0x0000000000000000       0x7c Drivers/STM32F4xx_StdPeriph_Driver/src/misc.o
                                         0x7d (size before relaxing)
 .comment       0x000000000000007c       0x7d Drivers/STM32F4xx_StdPeriph_Driver/src/stm32f4xx_adc.o
 .comment       0x000000000000007c       0x7d Drivers/STM32F4xx_StdPeriph_Driver/src/stm32f4xx_can.o
 .comment       0x000000000000007c       0x7d Drivers/STM32F4xx_StdPeriph_Driver/src/stm32f4xx_crc.o
 .comment       0x000000000000007c       0x7d Drivers/STM32F4xx_StdPeriph_Driver/src/stm32f4xx_cryp.o
 .comment       0x000000000000007c       0x7d Drivers/STM32F4xx_StdPeriph_Driver/src/stm32f4xx_cryp_aes.o
 .comment       0x000000000000007c       0x7d Drivers/STM32F4xx_StdPeriph_Driver/src/stm32f4xx_cryp_des.o
 .comment       0x000000000000007c       0x7d Drivers/STM32F4xx_StdPeriph_Driver/src/stm32f4xx_cryp_tdes.o
 .comment       0x000000000000007c       0x7d Drivers/STM32F4xx_StdPeriph_Driver/src/stm32f4xx_dac.o
 .comment       0x000000000000007c       0x7d Drivers/STM32F4xx_StdPeriph_Driver/src/stm32f4xx_dbgmcu.o
 .comment       0x000000000000007c       0x7d Drivers/STM32F4xx_StdPeriph_Driver/src/stm32f4xx_dcmi.o
 .comment       0x000000000000007c       0x7d Drivers/STM32F4xx_StdPeriph_Driver/src/stm32f4xx_dma.o
 .comment       0x000000000000007c       0x7d Drivers/STM32F4xx_StdPeriph_Driver/src/stm32f4xx_exti.o
 .comment       0x000000000000007c       0x7d Drivers/STM32F4xx_StdPeriph_Driver/src/stm32f4xx_flash.o
 .comment       0x000000000000007c       0x7d Drivers/STM32F4xx_StdPeriph_Driver/src/stm32f4xx_fsmc.o
 .comment       0x000000000000007c       0x7d Drivers/STM32F4xx_StdPeriph_Driver/src/stm32f4xx_gpio.o
 .comment       0x000000000000007c       0x7d Drivers/STM32F4xx_StdPeriph_Driver/src/stm32f4xx_hash.o
 .comment       0x000000000000007c       0x7d Drivers/STM32F4xx_StdPeriph_Driver/src/stm32f4xx_hash_md5.o
 .comment       0x000000000000007c       0x7d Drivers/STM32F4xx_StdPeriph_Driver/src/stm32f4xx_hash_sha1.o
 .comment       0x000000000000007c       0x7d Drivers/STM32F4xx_StdPeriph_Driver/src/stm32f4xx_i2c.o
 .comment       0x000000000000007c       0x7d Drivers/STM32F4xx_StdPeriph_Driver/src/stm32f4xx_iwdg.o
 .comment       0x000000000000007c       0x7d Drivers/STM32F4xx_StdPeriph_Driver/src/stm32f4xx_pwr.o
 .comment       0x000000000000007c       0x7d Drivers/STM32F4xx_StdPeriph_Driver/src/stm32f4xx_rcc.o
 .comment       0x000000000000007c       0x7d Drivers/STM32F4xx_StdPeriph_Driver/src/stm32f4xx_rng.o
 .comment       0x000000000000007c       0x7d Drivers/STM32F4xx_StdPeriph_Driver/src/stm32f4xx_rtc.o
 .comment       0x000000000000007c       0x7d Drivers/STM32F4xx_StdPeriph_Driver/src/stm32f4xx_sdio.o
 .comment       0x000000000000007c       0x7d Drivers/STM32F4xx_StdPeriph_Driver/src/stm32f4xx_spi.o
 .comment       0x000000000000007c       0x7d Drivers/STM32F4xx_StdPeriph_Driver/src/stm32f4xx_syscfg.o
 .comment       0x000000000000007c       0x7d Drivers/STM32F4xx_StdPeriph_Driver/src/stm32f4xx_tim.o
 .comment       0x000000000000007c       0x7d Drivers/STM32F4xx_StdPeriph_Driver/src/stm32f4xx_usart.o
 .comment       0x000000000000007c       0x7d Drivers/STM32F4xx_StdPeriph_Driver/src/stm32f4xx_wwdg.o
 .comment       0x000000000000007c       0x7d src/main.o
 .comment       0x000000000000007c       0x7d src/stm32f4xx_it.o
 .comment       0x000000000000007c       0x7d src/system_stm32f4xx.o
 .comment       0x000000000000007c       0x7d src/tiny_printf.o

.debug_frame    0x0000000000000000     0x62f8
 .debug_frame   0x0000000000000000       0xd8 Drivers/STM32F4xx_StdPeriph_Driver/src/misc.o
 .debug_frame   0x00000000000000d8      0x5ec Drivers/STM32F4xx_StdPeriph_Driver/src/stm32f4xx_adc.o
 .debug_frame   0x00000000000006c4      0x3f0 Drivers/STM32F4xx_StdPeriph_Driver/src/stm32f4xx_can.o
 .debug_frame   0x0000000000000ab4       0xe8 Drivers/STM32F4xx_StdPeriph_Driver/src/stm32f4xx_crc.o
 .debug_frame   0x0000000000000b9c      0x2ec Drivers/STM32F4xx_StdPeriph_Driver/src/stm32f4xx_cryp.o
 .debug_frame   0x0000000000000e88       0xe4 Drivers/STM32F4xx_StdPeriph_Driver/src/stm32f4xx_cryp_aes.o
 .debug_frame   0x0000000000000f6c       0x60 Drivers/STM32F4xx_StdPeriph_Driver/src/stm32f4xx_cryp_des.o
 .debug_frame   0x0000000000000fcc       0x60 Drivers/STM32F4xx_StdPeriph_Driver/src/stm32f4xx_cryp_tdes.o
 .debug_frame   0x000000000000102c      0x2ac Drivers/STM32F4xx_StdPeriph_Driver/src/stm32f4xx_dac.o
 .debug_frame   0x00000000000012d8       0xc8 Drivers/STM32F4xx_StdPeriph_Driver/src/stm32f4xx_dbgmcu.o
 .debug_frame   0x00000000000013a0      0x258 Drivers/STM32F4xx_StdPeriph_Driver/src/stm32f4xx_dcmi.o
 .debug_frame   0x00000000000015f8      0x308 Drivers/STM32F4xx_StdPeriph_Driver/src/stm32f4xx_dma.o
 .debug_frame   0x0000000000001900      0x148 Drivers/STM32F4xx_StdPeriph_Driver/src/stm32f4xx_exti.o
 .debug_frame   0x0000000000001a48      0x494 Drivers/STM32F4xx_StdPeriph_Driver/src/stm32f4xx_flash.o
 .debug_frame   0x0000000000001edc      0x300 Drivers/STM32F4xx_StdPeriph_Driver/src/stm32f4xx_fsmc.o
 .debug_frame   0x00000000000021dc      0x23c Drivers/STM32F4xx_StdPeriph_Driver/src/stm32f4xx_gpio.o
 .debug_frame   0x0000000000002418      0x2bc Drivers/STM32F4xx_StdPeriph_Driver/src/stm32f4xx_hash.o
 .debug_frame   0x00000000000026d4       0x58 Drivers/STM32F4xx_StdPeriph_Driver/src/stm32f4xx_hash_md5.o
 .debug_frame   0x000000000000272c       0x5c Drivers/STM32F4xx_StdPeriph_Driver/src/stm32f4xx_hash_sha1.o
 .debug_frame   0x0000000000002788      0x580 Drivers/STM32F4xx_StdPeriph_Driver/src/stm32f4xx_i2c.o
 .debug_frame   0x0000000000002d08       0xf0 Drivers/STM32F4xx_StdPeriph_Driver/src/stm32f4xx_iwdg.o
 .debug_frame   0x0000000000002df8      0x1dc Drivers/STM32F4xx_StdPeriph_Driver/src/stm32f4xx_pwr.o
 .debug_frame   0x0000000000002fd4      0x6fc Drivers/STM32F4xx_StdPeriph_Driver/src/stm32f4xx_rcc.o
 .debug_frame   0x00000000000036d0      0x13c Drivers/STM32F4xx_StdPeriph_Driver/src/stm32f4xx_rng.o
 .debug_frame   0x000000000000380c      0x8b0 Drivers/STM32F4xx_StdPeriph_Driver/src/stm32f4xx_rtc.o
 .debug_frame   0x00000000000040bc      0x48c Drivers/STM32F4xx_StdPeriph_Driver/src/stm32f4xx_sdio.o
 .debug_frame   0x0000000000004548      0x3f4 Drivers/STM32F4xx_StdPeriph_Driver/src/stm32f4xx_spi.o
 .debug_frame   0x000000000000493c       0xf4 Drivers/STM32F4xx_StdPeriph_Driver/src/stm32f4xx_syscfg.o
 .debug_frame   0x0000000000004a30      0xe54 Drivers/STM32F4xx_StdPeriph_Driver/src/stm32f4xx_tim.o
 .debug_frame   0x0000000000005884      0x490 Drivers/STM32F4xx_StdPeriph_Driver/src/stm32f4xx_usart.o
 .debug_frame   0x0000000000005d14      0x134 Drivers/STM32F4xx_StdPeriph_Driver/src/stm32f4xx_wwdg.o
 .debug_frame   0x0000000000005e48      0x128 src/main.o
 .debug_frame   0x0000000000005f70      0x128 src/stm32f4xx_it.o
 .debug_frame   0x0000000000006098       0x58 src/system_stm32f4xx.o
 .debug_frame   0x00000000000060f0      0x1bc src/tiny_printf.o
 .debug_frame   0x00000000000062ac       0x2c /opt/Atollic_TrueSTUDIO_for_STM32_x86_64_9.3.0/ARMTools/bin/../lib/gcc/arm-atollic-eabi/6.3.1/../../../../arm-atollic-eabi/lib/armv7e-m/fpu/libc_nano.a(lib_a-init.o)
 .debug_frame   0x00000000000062d8       0x20 /opt/Atollic_TrueSTUDIO_for_STM32_x86_64_9.3.0/ARMTools/bin/../lib/gcc/arm-atollic-eabi/6.3.1/../../../../arm-atollic-eabi/lib/armv7e-m/fpu/libnosys.a(write.o)

.debug_ranges   0x0000000000000000       0x20
 .debug_ranges  0x0000000000000000       0x20 src/startup_stm32f411xe.o

.stab           0x0000000000000000       0x24
 .stab          0x0000000000000000       0x24 /opt/Atollic_TrueSTUDIO_for_STM32_x86_64_9.3.0/ARMTools/bin/../lib/gcc/arm-atollic-eabi/6.3.1/../../../../arm-atollic-eabi/lib/armv7e-m/fpu/libnosys.a(write.o)

.stabstr        0x0000000000000000       0x3f
 .stabstr       0x0000000000000000       0x3f /opt/Atollic_TrueSTUDIO_for_STM32_x86_64_9.3.0/ARMTools/bin/../lib/gcc/arm-atollic-eabi/6.3.1/../../../../arm-atollic-eabi/lib/armv7e-m/fpu/libnosys.a(write.o)

Cross Reference Table

Symbol                                            File
ADC_AnalogWatchdogCmd                             Drivers/STM32F4xx_StdPeriph_Driver/src/stm32f4xx_adc.o
ADC_AnalogWatchdogSingleChannelConfig             Drivers/STM32F4xx_StdPeriph_Driver/src/stm32f4xx_adc.o
ADC_AnalogWatchdogThresholdsConfig                Drivers/STM32F4xx_StdPeriph_Driver/src/stm32f4xx_adc.o
ADC_AutoInjectedConvCmd                           Drivers/STM32F4xx_StdPeriph_Driver/src/stm32f4xx_adc.o
ADC_ClearFlag                                     Drivers/STM32F4xx_StdPeriph_Driver/src/stm32f4xx_adc.o
ADC_ClearITPendingBit                             Drivers/STM32F4xx_StdPeriph_Driver/src/stm32f4xx_adc.o
ADC_Cmd                                           Drivers/STM32F4xx_StdPeriph_Driver/src/stm32f4xx_adc.o
ADC_CommonInit                                    Drivers/STM32F4xx_StdPeriph_Driver/src/stm32f4xx_adc.o
ADC_CommonStructInit                              Drivers/STM32F4xx_StdPeriph_Driver/src/stm32f4xx_adc.o
ADC_ContinuousModeCmd                             Drivers/STM32F4xx_StdPeriph_Driver/src/stm32f4xx_adc.o
ADC_DMACmd                                        Drivers/STM32F4xx_StdPeriph_Driver/src/stm32f4xx_adc.o
ADC_DMARequestAfterLastTransferCmd                Drivers/STM32F4xx_StdPeriph_Driver/src/stm32f4xx_adc.o
ADC_DeInit                                        Drivers/STM32F4xx_StdPeriph_Driver/src/stm32f4xx_adc.o
ADC_DiscModeChannelCountConfig                    Drivers/STM32F4xx_StdPeriph_Driver/src/stm32f4xx_adc.o
ADC_DiscModeCmd                                   Drivers/STM32F4xx_StdPeriph_Driver/src/stm32f4xx_adc.o
ADC_EOCOnEachRegularChannelCmd                    Drivers/STM32F4xx_StdPeriph_Driver/src/stm32f4xx_adc.o
ADC_ExternalTrigInjectedConvConfig                Drivers/STM32F4xx_StdPeriph_Driver/src/stm32f4xx_adc.o
ADC_ExternalTrigInjectedConvEdgeConfig            Drivers/STM32F4xx_StdPeriph_Driver/src/stm32f4xx_adc.o
ADC_GetConversionValue                            Drivers/STM32F4xx_StdPeriph_Driver/src/stm32f4xx_adc.o
ADC_GetFlagStatus                                 Drivers/STM32F4xx_StdPeriph_Driver/src/stm32f4xx_adc.o
ADC_GetITStatus                                   Drivers/STM32F4xx_StdPeriph_Driver/src/stm32f4xx_adc.o
ADC_GetInjectedConversionValue                    Drivers/STM32F4xx_StdPeriph_Driver/src/stm32f4xx_adc.o
ADC_GetMultiModeConversionValue                   Drivers/STM32F4xx_StdPeriph_Driver/src/stm32f4xx_adc.o
ADC_GetSoftwareStartConvStatus                    Drivers/STM32F4xx_StdPeriph_Driver/src/stm32f4xx_adc.o
ADC_GetSoftwareStartInjectedConvCmdStatus         Drivers/STM32F4xx_StdPeriph_Driver/src/stm32f4xx_adc.o
ADC_IRQHandler                                    src/startup_stm32f411xe.o
ADC_ITConfig                                      Drivers/STM32F4xx_StdPeriph_Driver/src/stm32f4xx_adc.o
ADC_Init                                          Drivers/STM32F4xx_StdPeriph_Driver/src/stm32f4xx_adc.o
ADC_InjectedChannelConfig                         Drivers/STM32F4xx_StdPeriph_Driver/src/stm32f4xx_adc.o
ADC_InjectedDiscModeCmd                           Drivers/STM32F4xx_StdPeriph_Driver/src/stm32f4xx_adc.o
ADC_InjectedSequencerLengthConfig                 Drivers/STM32F4xx_StdPeriph_Driver/src/stm32f4xx_adc.o
ADC_MultiModeDMARequestAfterLastTransferCmd       Drivers/STM32F4xx_StdPeriph_Driver/src/stm32f4xx_adc.o
ADC_RegularChannelConfig                          Drivers/STM32F4xx_StdPeriph_Driver/src/stm32f4xx_adc.o
ADC_SetInjectedOffset                             Drivers/STM32F4xx_StdPeriph_Driver/src/stm32f4xx_adc.o
ADC_SoftwareStartConv                             Drivers/STM32F4xx_StdPeriph_Driver/src/stm32f4xx_adc.o
ADC_SoftwareStartInjectedConv                     Drivers/STM32F4xx_StdPeriph_Driver/src/stm32f4xx_adc.o
ADC_StructInit                                    Drivers/STM32F4xx_StdPeriph_Driver/src/stm32f4xx_adc.o
ADC_TempSensorVrefintCmd                          Drivers/STM32F4xx_StdPeriph_Driver/src/stm32f4xx_adc.o
ADC_VBATCmd                                       Drivers/STM32F4xx_StdPeriph_Driver/src/stm32f4xx_adc.o
AHBPrescTable                                     src/system_stm32f4xx.o
BusFault_Handler                                  src/stm32f4xx_it.o
                                                  src/startup_stm32f411xe.o
CAN_CancelTransmit                                Drivers/STM32F4xx_StdPeriph_Driver/src/stm32f4xx_can.o
CAN_ClearFlag                                     Drivers/STM32F4xx_StdPeriph_Driver/src/stm32f4xx_can.o
CAN_ClearITPendingBit                             Drivers/STM32F4xx_StdPeriph_Driver/src/stm32f4xx_can.o
CAN_DBGFreeze                                     Drivers/STM32F4xx_StdPeriph_Driver/src/stm32f4xx_can.o
CAN_DeInit                                        Drivers/STM32F4xx_StdPeriph_Driver/src/stm32f4xx_can.o
CAN_FIFORelease                                   Drivers/STM32F4xx_StdPeriph_Driver/src/stm32f4xx_can.o
CAN_FilterInit                                    Drivers/STM32F4xx_StdPeriph_Driver/src/stm32f4xx_can.o
CAN_GetFlagStatus                                 Drivers/STM32F4xx_StdPeriph_Driver/src/stm32f4xx_can.o
CAN_GetITStatus                                   Drivers/STM32F4xx_StdPeriph_Driver/src/stm32f4xx_can.o
CAN_GetLSBTransmitErrorCounter                    Drivers/STM32F4xx_StdPeriph_Driver/src/stm32f4xx_can.o
CAN_GetLastErrorCode                              Drivers/STM32F4xx_StdPeriph_Driver/src/stm32f4xx_can.o
CAN_GetReceiveErrorCounter                        Drivers/STM32F4xx_StdPeriph_Driver/src/stm32f4xx_can.o
CAN_ITConfig                                      Drivers/STM32F4xx_StdPeriph_Driver/src/stm32f4xx_can.o
CAN_Init                                          Drivers/STM32F4xx_StdPeriph_Driver/src/stm32f4xx_can.o
CAN_MessagePending                                Drivers/STM32F4xx_StdPeriph_Driver/src/stm32f4xx_can.o
CAN_OperatingModeRequest                          Drivers/STM32F4xx_StdPeriph_Driver/src/stm32f4xx_can.o
CAN_Receive                                       Drivers/STM32F4xx_StdPeriph_Driver/src/stm32f4xx_can.o
CAN_SlaveStartBank                                Drivers/STM32F4xx_StdPeriph_Driver/src/stm32f4xx_can.o
CAN_Sleep                                         Drivers/STM32F4xx_StdPeriph_Driver/src/stm32f4xx_can.o
CAN_StructInit                                    Drivers/STM32F4xx_StdPeriph_Driver/src/stm32f4xx_can.o
CAN_TTComModeCmd                                  Drivers/STM32F4xx_StdPeriph_Driver/src/stm32f4xx_can.o
CAN_Transmit                                      Drivers/STM32F4xx_StdPeriph_Driver/src/stm32f4xx_can.o
CAN_TransmitStatus                                Drivers/STM32F4xx_StdPeriph_Driver/src/stm32f4xx_can.o
CAN_WakeUp                                        Drivers/STM32F4xx_StdPeriph_Driver/src/stm32f4xx_can.o
CRC_CalcBlockCRC                                  Drivers/STM32F4xx_StdPeriph_Driver/src/stm32f4xx_crc.o
CRC_CalcCRC                                       Drivers/STM32F4xx_StdPeriph_Driver/src/stm32f4xx_crc.o
CRC_GetCRC                                        Drivers/STM32F4xx_StdPeriph_Driver/src/stm32f4xx_crc.o
CRC_GetIDRegister                                 Drivers/STM32F4xx_StdPeriph_Driver/src/stm32f4xx_crc.o
CRC_ResetDR                                       Drivers/STM32F4xx_StdPeriph_Driver/src/stm32f4xx_crc.o
CRC_SetIDRegister                                 Drivers/STM32F4xx_StdPeriph_Driver/src/stm32f4xx_crc.o
CRYP_AES_CBC                                      Drivers/STM32F4xx_StdPeriph_Driver/src/stm32f4xx_cryp_aes.o
CRYP_AES_CCM                                      Drivers/STM32F4xx_StdPeriph_Driver/src/stm32f4xx_cryp_aes.o
CRYP_AES_CTR                                      Drivers/STM32F4xx_StdPeriph_Driver/src/stm32f4xx_cryp_aes.o
CRYP_AES_ECB                                      Drivers/STM32F4xx_StdPeriph_Driver/src/stm32f4xx_cryp_aes.o
CRYP_AES_GCM                                      Drivers/STM32F4xx_StdPeriph_Driver/src/stm32f4xx_cryp_aes.o
CRYP_Cmd                                          Drivers/STM32F4xx_StdPeriph_Driver/src/stm32f4xx_cryp.o
                                                  Drivers/STM32F4xx_StdPeriph_Driver/src/stm32f4xx_cryp_tdes.o
                                                  Drivers/STM32F4xx_StdPeriph_Driver/src/stm32f4xx_cryp_des.o
                                                  Drivers/STM32F4xx_StdPeriph_Driver/src/stm32f4xx_cryp_aes.o
CRYP_DES_CBC                                      Drivers/STM32F4xx_StdPeriph_Driver/src/stm32f4xx_cryp_des.o
CRYP_DES_ECB                                      Drivers/STM32F4xx_StdPeriph_Driver/src/stm32f4xx_cryp_des.o
CRYP_DMACmd                                       Drivers/STM32F4xx_StdPeriph_Driver/src/stm32f4xx_cryp.o
CRYP_DataIn                                       Drivers/STM32F4xx_StdPeriph_Driver/src/stm32f4xx_cryp.o
                                                  Drivers/STM32F4xx_StdPeriph_Driver/src/stm32f4xx_cryp_tdes.o
                                                  Drivers/STM32F4xx_StdPeriph_Driver/src/stm32f4xx_cryp_des.o
                                                  Drivers/STM32F4xx_StdPeriph_Driver/src/stm32f4xx_cryp_aes.o
CRYP_DataOut                                      Drivers/STM32F4xx_StdPeriph_Driver/src/stm32f4xx_cryp.o
                                                  Drivers/STM32F4xx_StdPeriph_Driver/src/stm32f4xx_cryp_tdes.o
                                                  Drivers/STM32F4xx_StdPeriph_Driver/src/stm32f4xx_cryp_des.o
                                                  Drivers/STM32F4xx_StdPeriph_Driver/src/stm32f4xx_cryp_aes.o
CRYP_DeInit                                       Drivers/STM32F4xx_StdPeriph_Driver/src/stm32f4xx_cryp.o
CRYP_FIFOFlush                                    Drivers/STM32F4xx_StdPeriph_Driver/src/stm32f4xx_cryp.o
                                                  Drivers/STM32F4xx_StdPeriph_Driver/src/stm32f4xx_cryp_tdes.o
                                                  Drivers/STM32F4xx_StdPeriph_Driver/src/stm32f4xx_cryp_des.o
                                                  Drivers/STM32F4xx_StdPeriph_Driver/src/stm32f4xx_cryp_aes.o
CRYP_GetCmdStatus                                 Drivers/STM32F4xx_StdPeriph_Driver/src/stm32f4xx_cryp.o
                                                  Drivers/STM32F4xx_StdPeriph_Driver/src/stm32f4xx_cryp_tdes.o
                                                  Drivers/STM32F4xx_StdPeriph_Driver/src/stm32f4xx_cryp_des.o
                                                  Drivers/STM32F4xx_StdPeriph_Driver/src/stm32f4xx_cryp_aes.o
CRYP_GetFlagStatus                                Drivers/STM32F4xx_StdPeriph_Driver/src/stm32f4xx_cryp.o
                                                  Drivers/STM32F4xx_StdPeriph_Driver/src/stm32f4xx_cryp_tdes.o
                                                  Drivers/STM32F4xx_StdPeriph_Driver/src/stm32f4xx_cryp_des.o
                                                  Drivers/STM32F4xx_StdPeriph_Driver/src/stm32f4xx_cryp_aes.o
CRYP_GetITStatus                                  Drivers/STM32F4xx_StdPeriph_Driver/src/stm32f4xx_cryp.o
CRYP_ITConfig                                     Drivers/STM32F4xx_StdPeriph_Driver/src/stm32f4xx_cryp.o
CRYP_IVInit                                       Drivers/STM32F4xx_StdPeriph_Driver/src/stm32f4xx_cryp.o
                                                  Drivers/STM32F4xx_StdPeriph_Driver/src/stm32f4xx_cryp_tdes.o
                                                  Drivers/STM32F4xx_StdPeriph_Driver/src/stm32f4xx_cryp_des.o
                                                  Drivers/STM32F4xx_StdPeriph_Driver/src/stm32f4xx_cryp_aes.o
CRYP_IVStructInit                                 Drivers/STM32F4xx_StdPeriph_Driver/src/stm32f4xx_cryp.o
CRYP_Init                                         Drivers/STM32F4xx_StdPeriph_Driver/src/stm32f4xx_cryp.o
                                                  Drivers/STM32F4xx_StdPeriph_Driver/src/stm32f4xx_cryp_tdes.o
                                                  Drivers/STM32F4xx_StdPeriph_Driver/src/stm32f4xx_cryp_des.o
                                                  Drivers/STM32F4xx_StdPeriph_Driver/src/stm32f4xx_cryp_aes.o
CRYP_KeyInit                                      Drivers/STM32F4xx_StdPeriph_Driver/src/stm32f4xx_cryp.o
                                                  Drivers/STM32F4xx_StdPeriph_Driver/src/stm32f4xx_cryp_tdes.o
                                                  Drivers/STM32F4xx_StdPeriph_Driver/src/stm32f4xx_cryp_des.o
                                                  Drivers/STM32F4xx_StdPeriph_Driver/src/stm32f4xx_cryp_aes.o
CRYP_KeyStructInit                                Drivers/STM32F4xx_StdPeriph_Driver/src/stm32f4xx_cryp.o
                                                  Drivers/STM32F4xx_StdPeriph_Driver/src/stm32f4xx_cryp_tdes.o
                                                  Drivers/STM32F4xx_StdPeriph_Driver/src/stm32f4xx_cryp_des.o
                                                  Drivers/STM32F4xx_StdPeriph_Driver/src/stm32f4xx_cryp_aes.o
CRYP_PhaseConfig                                  Drivers/STM32F4xx_StdPeriph_Driver/src/stm32f4xx_cryp.o
                                                  Drivers/STM32F4xx_StdPeriph_Driver/src/stm32f4xx_cryp_aes.o
CRYP_RestoreContext                               Drivers/STM32F4xx_StdPeriph_Driver/src/stm32f4xx_cryp.o
CRYP_SaveContext                                  Drivers/STM32F4xx_StdPeriph_Driver/src/stm32f4xx_cryp.o
CRYP_StructInit                                   Drivers/STM32F4xx_StdPeriph_Driver/src/stm32f4xx_cryp.o
CRYP_TDES_CBC                                     Drivers/STM32F4xx_StdPeriph_Driver/src/stm32f4xx_cryp_tdes.o
CRYP_TDES_ECB                                     Drivers/STM32F4xx_StdPeriph_Driver/src/stm32f4xx_cryp_tdes.o
DAC_ClearFlag                                     Drivers/STM32F4xx_StdPeriph_Driver/src/stm32f4xx_dac.o
DAC_ClearITPendingBit                             Drivers/STM32F4xx_StdPeriph_Driver/src/stm32f4xx_dac.o
DAC_Cmd                                           Drivers/STM32F4xx_StdPeriph_Driver/src/stm32f4xx_dac.o
DAC_DMACmd                                        Drivers/STM32F4xx_StdPeriph_Driver/src/stm32f4xx_dac.o
DAC_DeInit                                        Drivers/STM32F4xx_StdPeriph_Driver/src/stm32f4xx_dac.o
DAC_DualSoftwareTriggerCmd                        Drivers/STM32F4xx_StdPeriph_Driver/src/stm32f4xx_dac.o
DAC_GetDataOutputValue                            Drivers/STM32F4xx_StdPeriph_Driver/src/stm32f4xx_dac.o
DAC_GetFlagStatus                                 Drivers/STM32F4xx_StdPeriph_Driver/src/stm32f4xx_dac.o
DAC_GetITStatus                                   Drivers/STM32F4xx_StdPeriph_Driver/src/stm32f4xx_dac.o
DAC_ITConfig                                      Drivers/STM32F4xx_StdPeriph_Driver/src/stm32f4xx_dac.o
DAC_Init                                          Drivers/STM32F4xx_StdPeriph_Driver/src/stm32f4xx_dac.o
DAC_SetChannel1Data                               Drivers/STM32F4xx_StdPeriph_Driver/src/stm32f4xx_dac.o
DAC_SetChannel2Data                               Drivers/STM32F4xx_StdPeriph_Driver/src/stm32f4xx_dac.o
DAC_SetDualChannelData                            Drivers/STM32F4xx_StdPeriph_Driver/src/stm32f4xx_dac.o
DAC_SoftwareTriggerCmd                            Drivers/STM32F4xx_StdPeriph_Driver/src/stm32f4xx_dac.o
DAC_StructInit                                    Drivers/STM32F4xx_StdPeriph_Driver/src/stm32f4xx_dac.o
DAC_WaveGenerationCmd                             Drivers/STM32F4xx_StdPeriph_Driver/src/stm32f4xx_dac.o
DBGMCU_APB1PeriphConfig                           Drivers/STM32F4xx_StdPeriph_Driver/src/stm32f4xx_dbgmcu.o
DBGMCU_APB2PeriphConfig                           Drivers/STM32F4xx_StdPeriph_Driver/src/stm32f4xx_dbgmcu.o
DBGMCU_Config                                     Drivers/STM32F4xx_StdPeriph_Driver/src/stm32f4xx_dbgmcu.o
DBGMCU_GetDEVID                                   Drivers/STM32F4xx_StdPeriph_Driver/src/stm32f4xx_dbgmcu.o
DBGMCU_GetREVID                                   Drivers/STM32F4xx_StdPeriph_Driver/src/stm32f4xx_dbgmcu.o
DCMI_CROPCmd                                      Drivers/STM32F4xx_StdPeriph_Driver/src/stm32f4xx_dcmi.o
DCMI_CROPConfig                                   Drivers/STM32F4xx_StdPeriph_Driver/src/stm32f4xx_dcmi.o
DCMI_CaptureCmd                                   Drivers/STM32F4xx_StdPeriph_Driver/src/stm32f4xx_dcmi.o
DCMI_ClearFlag                                    Drivers/STM32F4xx_StdPeriph_Driver/src/stm32f4xx_dcmi.o
DCMI_ClearITPendingBit                            Drivers/STM32F4xx_StdPeriph_Driver/src/stm32f4xx_dcmi.o
DCMI_Cmd                                          Drivers/STM32F4xx_StdPeriph_Driver/src/stm32f4xx_dcmi.o
DCMI_DeInit                                       Drivers/STM32F4xx_StdPeriph_Driver/src/stm32f4xx_dcmi.o
DCMI_GetFlagStatus                                Drivers/STM32F4xx_StdPeriph_Driver/src/stm32f4xx_dcmi.o
DCMI_GetITStatus                                  Drivers/STM32F4xx_StdPeriph_Driver/src/stm32f4xx_dcmi.o
DCMI_ITConfig                                     Drivers/STM32F4xx_StdPeriph_Driver/src/stm32f4xx_dcmi.o
DCMI_Init                                         Drivers/STM32F4xx_StdPeriph_Driver/src/stm32f4xx_dcmi.o
DCMI_JPEGCmd                                      Drivers/STM32F4xx_StdPeriph_Driver/src/stm32f4xx_dcmi.o
DCMI_ReadData                                     Drivers/STM32F4xx_StdPeriph_Driver/src/stm32f4xx_dcmi.o
DCMI_SetEmbeddedSynchroCodes                      Drivers/STM32F4xx_StdPeriph_Driver/src/stm32f4xx_dcmi.o
DCMI_StructInit                                   Drivers/STM32F4xx_StdPeriph_Driver/src/stm32f4xx_dcmi.o
DMA1_Stream0_IRQHandler                           src/startup_stm32f411xe.o
DMA1_Stream1_IRQHandler                           src/startup_stm32f411xe.o
DMA1_Stream2_IRQHandler                           src/startup_stm32f411xe.o
DMA1_Stream3_IRQHandler                           src/startup_stm32f411xe.o
DMA1_Stream4_IRQHandler                           src/startup_stm32f411xe.o
DMA1_Stream5_IRQHandler                           src/startup_stm32f411xe.o
DMA1_Stream6_IRQHandler                           src/startup_stm32f411xe.o
DMA1_Stream7_IRQHandler                           src/startup_stm32f411xe.o
DMA2_Stream0_IRQHandler                           src/startup_stm32f411xe.o
DMA2_Stream1_IRQHandler                           src/startup_stm32f411xe.o
DMA2_Stream2_IRQHandler                           src/startup_stm32f411xe.o
DMA2_Stream3_IRQHandler                           src/startup_stm32f411xe.o
DMA2_Stream4_IRQHandler                           src/startup_stm32f411xe.o
DMA2_Stream5_IRQHandler                           src/startup_stm32f411xe.o
DMA2_Stream6_IRQHandler                           src/startup_stm32f411xe.o
DMA2_Stream7_IRQHandler                           src/startup_stm32f411xe.o
DMA_ClearFlag                                     Drivers/STM32F4xx_StdPeriph_Driver/src/stm32f4xx_dma.o
DMA_ClearITPendingBit                             Drivers/STM32F4xx_StdPeriph_Driver/src/stm32f4xx_dma.o
DMA_Cmd                                           Drivers/STM32F4xx_StdPeriph_Driver/src/stm32f4xx_dma.o
DMA_DeInit                                        Drivers/STM32F4xx_StdPeriph_Driver/src/stm32f4xx_dma.o
DMA_DoubleBufferModeCmd                           Drivers/STM32F4xx_StdPeriph_Driver/src/stm32f4xx_dma.o
DMA_DoubleBufferModeConfig                        Drivers/STM32F4xx_StdPeriph_Driver/src/stm32f4xx_dma.o
DMA_FlowControllerConfig                          Drivers/STM32F4xx_StdPeriph_Driver/src/stm32f4xx_dma.o
DMA_GetCmdStatus                                  Drivers/STM32F4xx_StdPeriph_Driver/src/stm32f4xx_dma.o
DMA_GetCurrDataCounter                            Drivers/STM32F4xx_StdPeriph_Driver/src/stm32f4xx_dma.o
DMA_GetCurrentMemoryTarget                        Drivers/STM32F4xx_StdPeriph_Driver/src/stm32f4xx_dma.o
DMA_GetFIFOStatus                                 Drivers/STM32F4xx_StdPeriph_Driver/src/stm32f4xx_dma.o
DMA_GetFlagStatus                                 Drivers/STM32F4xx_StdPeriph_Driver/src/stm32f4xx_dma.o
DMA_GetITStatus                                   Drivers/STM32F4xx_StdPeriph_Driver/src/stm32f4xx_dma.o
DMA_ITConfig                                      Drivers/STM32F4xx_StdPeriph_Driver/src/stm32f4xx_dma.o
DMA_Init                                          Drivers/STM32F4xx_StdPeriph_Driver/src/stm32f4xx_dma.o
DMA_MemoryTargetConfig                            Drivers/STM32F4xx_StdPeriph_Driver/src/stm32f4xx_dma.o
DMA_PeriphIncOffsetSizeConfig                     Drivers/STM32F4xx_StdPeriph_Driver/src/stm32f4xx_dma.o
DMA_SetCurrDataCounter                            Drivers/STM32F4xx_StdPeriph_Driver/src/stm32f4xx_dma.o
DMA_StructInit                                    Drivers/STM32F4xx_StdPeriph_Driver/src/stm32f4xx_dma.o
DebugMon_Handler                                  src/stm32f4xx_it.o
                                                  src/startup_stm32f411xe.o
Default_Handler                                   src/startup_stm32f411xe.o
Delay                                             src/main.o
EXTI0_IRQHandler                                  src/startup_stm32f411xe.o
EXTI15_10_IRQHandler                              src/stm32f4xx_it.o
                                                  src/startup_stm32f411xe.o
EXTI1_IRQHandler                                  src/startup_stm32f411xe.o
EXTI2_IRQHandler                                  src/startup_stm32f411xe.o
EXTI3_IRQHandler                                  src/startup_stm32f411xe.o
EXTI4_IRQHandler                                  src/startup_stm32f411xe.o
EXTI9_5_IRQHandler                                src/startup_stm32f411xe.o
EXTI_ClearFlag                                    Drivers/STM32F4xx_StdPeriph_Driver/src/stm32f4xx_exti.o
EXTI_ClearITPendingBit                            Drivers/STM32F4xx_StdPeriph_Driver/src/stm32f4xx_exti.o
                                                  src/stm32f4xx_it.o
EXTI_DeInit                                       Drivers/STM32F4xx_StdPeriph_Driver/src/stm32f4xx_exti.o
EXTI_GenerateSWInterrupt                          Drivers/STM32F4xx_StdPeriph_Driver/src/stm32f4xx_exti.o
EXTI_GetFlagStatus                                Drivers/STM32F4xx_StdPeriph_Driver/src/stm32f4xx_exti.o
EXTI_GetITStatus                                  Drivers/STM32F4xx_StdPeriph_Driver/src/stm32f4xx_exti.o
                                                  src/stm32f4xx_it.o
EXTI_Init                                         Drivers/STM32F4xx_StdPeriph_Driver/src/stm32f4xx_exti.o
                                                  src/main.o
EXTI_StructInit                                   Drivers/STM32F4xx_StdPeriph_Driver/src/stm32f4xx_exti.o
FLASH_ClearFlag                                   Drivers/STM32F4xx_StdPeriph_Driver/src/stm32f4xx_flash.o
FLASH_DataCacheCmd                                Drivers/STM32F4xx_StdPeriph_Driver/src/stm32f4xx_flash.o
FLASH_DataCacheReset                              Drivers/STM32F4xx_StdPeriph_Driver/src/stm32f4xx_flash.o
FLASH_EraseAllSectors                             Drivers/STM32F4xx_StdPeriph_Driver/src/stm32f4xx_flash.o
FLASH_EraseSector                                 Drivers/STM32F4xx_StdPeriph_Driver/src/stm32f4xx_flash.o
FLASH_GetFlagStatus                               Drivers/STM32F4xx_StdPeriph_Driver/src/stm32f4xx_flash.o
FLASH_GetStatus                                   Drivers/STM32F4xx_StdPeriph_Driver/src/stm32f4xx_flash.o
FLASH_IRQHandler                                  src/startup_stm32f411xe.o
FLASH_ITConfig                                    Drivers/STM32F4xx_StdPeriph_Driver/src/stm32f4xx_flash.o
FLASH_InstructionCacheCmd                         Drivers/STM32F4xx_StdPeriph_Driver/src/stm32f4xx_flash.o
FLASH_InstructionCacheReset                       Drivers/STM32F4xx_StdPeriph_Driver/src/stm32f4xx_flash.o
FLASH_Lock                                        Drivers/STM32F4xx_StdPeriph_Driver/src/stm32f4xx_flash.o
FLASH_OB_BORConfig                                Drivers/STM32F4xx_StdPeriph_Driver/src/stm32f4xx_flash.o
FLASH_OB_GetBOR                                   Drivers/STM32F4xx_StdPeriph_Driver/src/stm32f4xx_flash.o
FLASH_OB_GetRDP                                   Drivers/STM32F4xx_StdPeriph_Driver/src/stm32f4xx_flash.o
FLASH_OB_GetUser                                  Drivers/STM32F4xx_StdPeriph_Driver/src/stm32f4xx_flash.o
FLASH_OB_GetWRP                                   Drivers/STM32F4xx_StdPeriph_Driver/src/stm32f4xx_flash.o
FLASH_OB_GetWRP1                                  Drivers/STM32F4xx_StdPeriph_Driver/src/stm32f4xx_flash.o
FLASH_OB_Launch                                   Drivers/STM32F4xx_StdPeriph_Driver/src/stm32f4xx_flash.o
FLASH_OB_Lock                                     Drivers/STM32F4xx_StdPeriph_Driver/src/stm32f4xx_flash.o
FLASH_OB_RDPConfig                                Drivers/STM32F4xx_StdPeriph_Driver/src/stm32f4xx_flash.o
FLASH_OB_Unlock                                   Drivers/STM32F4xx_StdPeriph_Driver/src/stm32f4xx_flash.o
FLASH_OB_UserConfig                               Drivers/STM32F4xx_StdPeriph_Driver/src/stm32f4xx_flash.o
FLASH_OB_WRP1Config                               Drivers/STM32F4xx_StdPeriph_Driver/src/stm32f4xx_flash.o
FLASH_OB_WRPConfig                                Drivers/STM32F4xx_StdPeriph_Driver/src/stm32f4xx_flash.o
FLASH_PrefetchBufferCmd                           Drivers/STM32F4xx_StdPeriph_Driver/src/stm32f4xx_flash.o
FLASH_ProgramByte                                 Drivers/STM32F4xx_StdPeriph_Driver/src/stm32f4xx_flash.o
FLASH_ProgramDoubleWord                           Drivers/STM32F4xx_StdPeriph_Driver/src/stm32f4xx_flash.o
FLASH_ProgramHalfWord                             Drivers/STM32F4xx_StdPeriph_Driver/src/stm32f4xx_flash.o
FLASH_ProgramWord                                 Drivers/STM32F4xx_StdPeriph_Driver/src/stm32f4xx_flash.o
FLASH_SetLatency                                  Drivers/STM32F4xx_StdPeriph_Driver/src/stm32f4xx_flash.o
FLASH_Unlock                                      Drivers/STM32F4xx_StdPeriph_Driver/src/stm32f4xx_flash.o
FLASH_WaitForLastOperation                        Drivers/STM32F4xx_StdPeriph_Driver/src/stm32f4xx_flash.o
FPU_IRQHandler                                    src/startup_stm32f411xe.o
FSMC_ClearFlag                                    Drivers/STM32F4xx_StdPeriph_Driver/src/stm32f4xx_fsmc.o
FSMC_ClearITPendingBit                            Drivers/STM32F4xx_StdPeriph_Driver/src/stm32f4xx_fsmc.o
FSMC_GetECC                                       Drivers/STM32F4xx_StdPeriph_Driver/src/stm32f4xx_fsmc.o
FSMC_GetFlagStatus                                Drivers/STM32F4xx_StdPeriph_Driver/src/stm32f4xx_fsmc.o
FSMC_GetITStatus                                  Drivers/STM32F4xx_StdPeriph_Driver/src/stm32f4xx_fsmc.o
FSMC_ITConfig                                     Drivers/STM32F4xx_StdPeriph_Driver/src/stm32f4xx_fsmc.o
FSMC_NANDCmd                                      Drivers/STM32F4xx_StdPeriph_Driver/src/stm32f4xx_fsmc.o
FSMC_NANDDeInit                                   Drivers/STM32F4xx_StdPeriph_Driver/src/stm32f4xx_fsmc.o
FSMC_NANDECCCmd                                   Drivers/STM32F4xx_StdPeriph_Driver/src/stm32f4xx_fsmc.o
FSMC_NANDInit                                     Drivers/STM32F4xx_StdPeriph_Driver/src/stm32f4xx_fsmc.o
FSMC_NANDStructInit                               Drivers/STM32F4xx_StdPeriph_Driver/src/stm32f4xx_fsmc.o
FSMC_NORSRAMCmd                                   Drivers/STM32F4xx_StdPeriph_Driver/src/stm32f4xx_fsmc.o
FSMC_NORSRAMDeInit                                Drivers/STM32F4xx_StdPeriph_Driver/src/stm32f4xx_fsmc.o
FSMC_NORSRAMInit                                  Drivers/STM32F4xx_StdPeriph_Driver/src/stm32f4xx_fsmc.o
FSMC_NORSRAMStructInit                            Drivers/STM32F4xx_StdPeriph_Driver/src/stm32f4xx_fsmc.o
FSMC_PCCARDCmd                                    Drivers/STM32F4xx_StdPeriph_Driver/src/stm32f4xx_fsmc.o
FSMC_PCCARDDeInit                                 Drivers/STM32F4xx_StdPeriph_Driver/src/stm32f4xx_fsmc.o
FSMC_PCCARDInit                                   Drivers/STM32F4xx_StdPeriph_Driver/src/stm32f4xx_fsmc.o
FSMC_PCCARDStructInit                             Drivers/STM32F4xx_StdPeriph_Driver/src/stm32f4xx_fsmc.o
GPIO_DeInit                                       Drivers/STM32F4xx_StdPeriph_Driver/src/stm32f4xx_gpio.o
GPIO_Init                                         Drivers/STM32F4xx_StdPeriph_Driver/src/stm32f4xx_gpio.o
                                                  src/main.o
GPIO_PinAFConfig                                  Drivers/STM32F4xx_StdPeriph_Driver/src/stm32f4xx_gpio.o
GPIO_PinLockConfig                                Drivers/STM32F4xx_StdPeriph_Driver/src/stm32f4xx_gpio.o
GPIO_ReadInputData                                Drivers/STM32F4xx_StdPeriph_Driver/src/stm32f4xx_gpio.o
GPIO_ReadInputDataBit                             Drivers/STM32F4xx_StdPeriph_Driver/src/stm32f4xx_gpio.o
GPIO_ReadOutputData                               Drivers/STM32F4xx_StdPeriph_Driver/src/stm32f4xx_gpio.o
GPIO_ReadOutputDataBit                            Drivers/STM32F4xx_StdPeriph_Driver/src/stm32f4xx_gpio.o
GPIO_ResetBits                                    Drivers/STM32F4xx_StdPeriph_Driver/src/stm32f4xx_gpio.o
                                                  src/main.o
GPIO_SetBits                                      Drivers/STM32F4xx_StdPeriph_Driver/src/stm32f4xx_gpio.o
                                                  src/main.o
GPIO_StructInit                                   Drivers/STM32F4xx_StdPeriph_Driver/src/stm32f4xx_gpio.o
GPIO_ToggleBits                                   Drivers/STM32F4xx_StdPeriph_Driver/src/stm32f4xx_gpio.o
                                                  src/main.o
GPIO_Write                                        Drivers/STM32F4xx_StdPeriph_Driver/src/stm32f4xx_gpio.o
GPIO_WriteBit                                     Drivers/STM32F4xx_StdPeriph_Driver/src/stm32f4xx_gpio.o
HASH_AutoStartDigest                              Drivers/STM32F4xx_StdPeriph_Driver/src/stm32f4xx_hash.o
HASH_ClearFlag                                    Drivers/STM32F4xx_StdPeriph_Driver/src/stm32f4xx_hash.o
HASH_ClearITPendingBit                            Drivers/STM32F4xx_StdPeriph_Driver/src/stm32f4xx_hash.o
HASH_DMACmd                                       Drivers/STM32F4xx_StdPeriph_Driver/src/stm32f4xx_hash.o
HASH_DataIn                                       Drivers/STM32F4xx_StdPeriph_Driver/src/stm32f4xx_hash.o
                                                  Drivers/STM32F4xx_StdPeriph_Driver/src/stm32f4xx_hash_sha1.o
                                                  Drivers/STM32F4xx_StdPeriph_Driver/src/stm32f4xx_hash_md5.o
HASH_DeInit                                       Drivers/STM32F4xx_StdPeriph_Driver/src/stm32f4xx_hash.o
                                                  Drivers/STM32F4xx_StdPeriph_Driver/src/stm32f4xx_hash_sha1.o
                                                  Drivers/STM32F4xx_StdPeriph_Driver/src/stm32f4xx_hash_md5.o
HASH_GetDigest                                    Drivers/STM32F4xx_StdPeriph_Driver/src/stm32f4xx_hash.o
                                                  Drivers/STM32F4xx_StdPeriph_Driver/src/stm32f4xx_hash_sha1.o
                                                  Drivers/STM32F4xx_StdPeriph_Driver/src/stm32f4xx_hash_md5.o
HASH_GetFlagStatus                                Drivers/STM32F4xx_StdPeriph_Driver/src/stm32f4xx_hash.o
                                                  Drivers/STM32F4xx_StdPeriph_Driver/src/stm32f4xx_hash_sha1.o
                                                  Drivers/STM32F4xx_StdPeriph_Driver/src/stm32f4xx_hash_md5.o
HASH_GetITStatus                                  Drivers/STM32F4xx_StdPeriph_Driver/src/stm32f4xx_hash.o
HASH_GetInFIFOWordsNbr                            Drivers/STM32F4xx_StdPeriph_Driver/src/stm32f4xx_hash.o
HASH_ITConfig                                     Drivers/STM32F4xx_StdPeriph_Driver/src/stm32f4xx_hash.o
HASH_Init                                         Drivers/STM32F4xx_StdPeriph_Driver/src/stm32f4xx_hash.o
                                                  Drivers/STM32F4xx_StdPeriph_Driver/src/stm32f4xx_hash_sha1.o
                                                  Drivers/STM32F4xx_StdPeriph_Driver/src/stm32f4xx_hash_md5.o
HASH_MD5                                          Drivers/STM32F4xx_StdPeriph_Driver/src/stm32f4xx_hash_md5.o
HASH_Reset                                        Drivers/STM32F4xx_StdPeriph_Driver/src/stm32f4xx_hash.o
HASH_RestoreContext                               Drivers/STM32F4xx_StdPeriph_Driver/src/stm32f4xx_hash.o
HASH_SHA1                                         Drivers/STM32F4xx_StdPeriph_Driver/src/stm32f4xx_hash_sha1.o
HASH_SaveContext                                  Drivers/STM32F4xx_StdPeriph_Driver/src/stm32f4xx_hash.o
HASH_SetLastWordValidBitsNbr                      Drivers/STM32F4xx_StdPeriph_Driver/src/stm32f4xx_hash.o
                                                  Drivers/STM32F4xx_StdPeriph_Driver/src/stm32f4xx_hash_sha1.o
                                                  Drivers/STM32F4xx_StdPeriph_Driver/src/stm32f4xx_hash_md5.o
HASH_StartDigest                                  Drivers/STM32F4xx_StdPeriph_Driver/src/stm32f4xx_hash.o
                                                  Drivers/STM32F4xx_StdPeriph_Driver/src/stm32f4xx_hash_sha1.o
                                                  Drivers/STM32F4xx_StdPeriph_Driver/src/stm32f4xx_hash_md5.o
HASH_StructInit                                   Drivers/STM32F4xx_StdPeriph_Driver/src/stm32f4xx_hash.o
HMAC_MD5                                          Drivers/STM32F4xx_StdPeriph_Driver/src/stm32f4xx_hash_md5.o
HMAC_SHA1                                         Drivers/STM32F4xx_StdPeriph_Driver/src/stm32f4xx_hash_sha1.o
HardFault_Handler                                 src/stm32f4xx_it.o
                                                  src/startup_stm32f411xe.o
I2C1_ER_IRQHandler                                src/startup_stm32f411xe.o
I2C1_EV_IRQHandler                                src/startup_stm32f411xe.o
I2C2_ER_IRQHandler                                src/startup_stm32f411xe.o
I2C2_EV_IRQHandler                                src/startup_stm32f411xe.o
I2C3_ER_IRQHandler                                src/startup_stm32f411xe.o
I2C3_EV_IRQHandler                                src/startup_stm32f411xe.o
I2C_ARPCmd                                        Drivers/STM32F4xx_StdPeriph_Driver/src/stm32f4xx_i2c.o
I2C_AcknowledgeConfig                             Drivers/STM32F4xx_StdPeriph_Driver/src/stm32f4xx_i2c.o
I2C_AnalogFilterCmd                               Drivers/STM32F4xx_StdPeriph_Driver/src/stm32f4xx_i2c.o
I2C_CalculatePEC                                  Drivers/STM32F4xx_StdPeriph_Driver/src/stm32f4xx_i2c.o
I2C_CheckEvent                                    Drivers/STM32F4xx_StdPeriph_Driver/src/stm32f4xx_i2c.o
I2C_ClearFlag                                     Drivers/STM32F4xx_StdPeriph_Driver/src/stm32f4xx_i2c.o
I2C_ClearITPendingBit                             Drivers/STM32F4xx_StdPeriph_Driver/src/stm32f4xx_i2c.o
I2C_Cmd                                           Drivers/STM32F4xx_StdPeriph_Driver/src/stm32f4xx_i2c.o
I2C_DMACmd                                        Drivers/STM32F4xx_StdPeriph_Driver/src/stm32f4xx_i2c.o
I2C_DMALastTransferCmd                            Drivers/STM32F4xx_StdPeriph_Driver/src/stm32f4xx_i2c.o
I2C_DeInit                                        Drivers/STM32F4xx_StdPeriph_Driver/src/stm32f4xx_i2c.o
I2C_DigitalFilterConfig                           Drivers/STM32F4xx_StdPeriph_Driver/src/stm32f4xx_i2c.o
I2C_DualAddressCmd                                Drivers/STM32F4xx_StdPeriph_Driver/src/stm32f4xx_i2c.o
I2C_FastModeDutyCycleConfig                       Drivers/STM32F4xx_StdPeriph_Driver/src/stm32f4xx_i2c.o
I2C_GeneralCallCmd                                Drivers/STM32F4xx_StdPeriph_Driver/src/stm32f4xx_i2c.o
I2C_GenerateSTART                                 Drivers/STM32F4xx_StdPeriph_Driver/src/stm32f4xx_i2c.o
I2C_GenerateSTOP                                  Drivers/STM32F4xx_StdPeriph_Driver/src/stm32f4xx_i2c.o
I2C_GetFlagStatus                                 Drivers/STM32F4xx_StdPeriph_Driver/src/stm32f4xx_i2c.o
I2C_GetITStatus                                   Drivers/STM32F4xx_StdPeriph_Driver/src/stm32f4xx_i2c.o
I2C_GetLastEvent                                  Drivers/STM32F4xx_StdPeriph_Driver/src/stm32f4xx_i2c.o
I2C_GetPEC                                        Drivers/STM32F4xx_StdPeriph_Driver/src/stm32f4xx_i2c.o
I2C_ITConfig                                      Drivers/STM32F4xx_StdPeriph_Driver/src/stm32f4xx_i2c.o
I2C_Init                                          Drivers/STM32F4xx_StdPeriph_Driver/src/stm32f4xx_i2c.o
I2C_NACKPositionConfig                            Drivers/STM32F4xx_StdPeriph_Driver/src/stm32f4xx_i2c.o
I2C_OwnAddress2Config                             Drivers/STM32F4xx_StdPeriph_Driver/src/stm32f4xx_i2c.o
I2C_PECPositionConfig                             Drivers/STM32F4xx_StdPeriph_Driver/src/stm32f4xx_i2c.o
I2C_ReadRegister                                  Drivers/STM32F4xx_StdPeriph_Driver/src/stm32f4xx_i2c.o
I2C_ReceiveData                                   Drivers/STM32F4xx_StdPeriph_Driver/src/stm32f4xx_i2c.o
I2C_SMBusAlertConfig                              Drivers/STM32F4xx_StdPeriph_Driver/src/stm32f4xx_i2c.o
I2C_Send7bitAddress                               Drivers/STM32F4xx_StdPeriph_Driver/src/stm32f4xx_i2c.o
I2C_SendData                                      Drivers/STM32F4xx_StdPeriph_Driver/src/stm32f4xx_i2c.o
I2C_SoftwareResetCmd                              Drivers/STM32F4xx_StdPeriph_Driver/src/stm32f4xx_i2c.o
I2C_StretchClockCmd                               Drivers/STM32F4xx_StdPeriph_Driver/src/stm32f4xx_i2c.o
I2C_StructInit                                    Drivers/STM32F4xx_StdPeriph_Driver/src/stm32f4xx_i2c.o
I2C_TransmitPEC                                   Drivers/STM32F4xx_StdPeriph_Driver/src/stm32f4xx_i2c.o
I2S_Cmd                                           Drivers/STM32F4xx_StdPeriph_Driver/src/stm32f4xx_spi.o
I2S_FullDuplexConfig                              Drivers/STM32F4xx_StdPeriph_Driver/src/stm32f4xx_spi.o
I2S_Init                                          Drivers/STM32F4xx_StdPeriph_Driver/src/stm32f4xx_spi.o
I2S_StructInit                                    Drivers/STM32F4xx_StdPeriph_Driver/src/stm32f4xx_spi.o
IWDG_Enable                                       Drivers/STM32F4xx_StdPeriph_Driver/src/stm32f4xx_iwdg.o
IWDG_GetFlagStatus                                Drivers/STM32F4xx_StdPeriph_Driver/src/stm32f4xx_iwdg.o
IWDG_ReloadCounter                                Drivers/STM32F4xx_StdPeriph_Driver/src/stm32f4xx_iwdg.o
IWDG_SetPrescaler                                 Drivers/STM32F4xx_StdPeriph_Driver/src/stm32f4xx_iwdg.o
IWDG_SetReload                                    Drivers/STM32F4xx_StdPeriph_Driver/src/stm32f4xx_iwdg.o
IWDG_WriteAccessCmd                               Drivers/STM32F4xx_StdPeriph_Driver/src/stm32f4xx_iwdg.o
MemManage_Handler                                 src/stm32f4xx_it.o
                                                  src/startup_stm32f411xe.o
NMI_Handler                                       src/stm32f4xx_it.o
                                                  src/startup_stm32f411xe.o
NVIC_Init                                         Drivers/STM32F4xx_StdPeriph_Driver/src/misc.o
                                                  src/main.o
NVIC_PriorityGroupConfig                          Drivers/STM32F4xx_StdPeriph_Driver/src/misc.o
NVIC_SetVectorTable                               Drivers/STM32F4xx_StdPeriph_Driver/src/misc.o
NVIC_SystemLPConfig                               Drivers/STM32F4xx_StdPeriph_Driver/src/misc.o
OTG_FS_IRQHandler                                 src/startup_stm32f411xe.o
OTG_FS_WKUP_IRQHandler                            src/startup_stm32f411xe.o
PVD_IRQHandler                                    src/startup_stm32f411xe.o
PWR_BackupAccessCmd                               Drivers/STM32F4xx_StdPeriph_Driver/src/stm32f4xx_pwr.o
PWR_BackupRegulatorCmd                            Drivers/STM32F4xx_StdPeriph_Driver/src/stm32f4xx_pwr.o
PWR_ClearFlag                                     Drivers/STM32F4xx_StdPeriph_Driver/src/stm32f4xx_pwr.o
PWR_DeInit                                        Drivers/STM32F4xx_StdPeriph_Driver/src/stm32f4xx_pwr.o
PWR_EnterSTANDBYMode                              Drivers/STM32F4xx_StdPeriph_Driver/src/stm32f4xx_pwr.o
PWR_EnterSTOPMode                                 Drivers/STM32F4xx_StdPeriph_Driver/src/stm32f4xx_pwr.o
PWR_FlashPowerDownCmd                             Drivers/STM32F4xx_StdPeriph_Driver/src/stm32f4xx_pwr.o
PWR_GetFlagStatus                                 Drivers/STM32F4xx_StdPeriph_Driver/src/stm32f4xx_pwr.o
PWR_MainRegulatorModeConfig                       Drivers/STM32F4xx_StdPeriph_Driver/src/stm32f4xx_pwr.o
PWR_PVDCmd                                        Drivers/STM32F4xx_StdPeriph_Driver/src/stm32f4xx_pwr.o
PWR_PVDLevelConfig                                Drivers/STM32F4xx_StdPeriph_Driver/src/stm32f4xx_pwr.o
PWR_WakeUpPinCmd                                  Drivers/STM32F4xx_StdPeriph_Driver/src/stm32f4xx_pwr.o
PendSV_Handler                                    src/stm32f4xx_it.o
                                                  src/startup_stm32f411xe.o
RCC_AHB1PeriphClockCmd                            Drivers/STM32F4xx_StdPeriph_Driver/src/stm32f4xx_rcc.o
                                                  src/main.o
RCC_AHB1PeriphClockLPModeCmd                      Drivers/STM32F4xx_StdPeriph_Driver/src/stm32f4xx_rcc.o
RCC_AHB1PeriphResetCmd                            Drivers/STM32F4xx_StdPeriph_Driver/src/stm32f4xx_rcc.o
                                                  Drivers/STM32F4xx_StdPeriph_Driver/src/stm32f4xx_gpio.o
RCC_AHB2PeriphClockCmd                            Drivers/STM32F4xx_StdPeriph_Driver/src/stm32f4xx_rcc.o
RCC_AHB2PeriphClockLPModeCmd                      Drivers/STM32F4xx_StdPeriph_Driver/src/stm32f4xx_rcc.o
RCC_AHB2PeriphResetCmd                            Drivers/STM32F4xx_StdPeriph_Driver/src/stm32f4xx_rcc.o
                                                  Drivers/STM32F4xx_StdPeriph_Driver/src/stm32f4xx_rng.o
                                                  Drivers/STM32F4xx_StdPeriph_Driver/src/stm32f4xx_hash.o
                                                  Drivers/STM32F4xx_StdPeriph_Driver/src/stm32f4xx_cryp.o
RCC_AHB3PeriphClockCmd                            Drivers/STM32F4xx_StdPeriph_Driver/src/stm32f4xx_rcc.o
RCC_AHB3PeriphClockLPModeCmd                      Drivers/STM32F4xx_StdPeriph_Driver/src/stm32f4xx_rcc.o
RCC_AHB3PeriphResetCmd                            Drivers/STM32F4xx_StdPeriph_Driver/src/stm32f4xx_rcc.o
RCC_APB1PeriphClockCmd                            Drivers/STM32F4xx_StdPeriph_Driver/src/stm32f4xx_rcc.o
RCC_APB1PeriphClockLPModeCmd                      Drivers/STM32F4xx_StdPeriph_Driver/src/stm32f4xx_rcc.o
RCC_APB1PeriphResetCmd                            Drivers/STM32F4xx_StdPeriph_Driver/src/stm32f4xx_rcc.o
                                                  Drivers/STM32F4xx_StdPeriph_Driver/src/stm32f4xx_wwdg.o
                                                  Drivers/STM32F4xx_StdPeriph_Driver/src/stm32f4xx_usart.o
                                                  Drivers/STM32F4xx_StdPeriph_Driver/src/stm32f4xx_tim.o
                                                  Drivers/STM32F4xx_StdPeriph_Driver/src/stm32f4xx_spi.o
                                                  Drivers/STM32F4xx_StdPeriph_Driver/src/stm32f4xx_pwr.o
                                                  Drivers/STM32F4xx_StdPeriph_Driver/src/stm32f4xx_i2c.o
                                                  Drivers/STM32F4xx_StdPeriph_Driver/src/stm32f4xx_dac.o
                                                  Drivers/STM32F4xx_StdPeriph_Driver/src/stm32f4xx_can.o
RCC_APB2PeriphClockCmd                            Drivers/STM32F4xx_StdPeriph_Driver/src/stm32f4xx_rcc.o
                                                  src/main.o
RCC_APB2PeriphClockLPModeCmd                      Drivers/STM32F4xx_StdPeriph_Driver/src/stm32f4xx_rcc.o
RCC_APB2PeriphResetCmd                            Drivers/STM32F4xx_StdPeriph_Driver/src/stm32f4xx_rcc.o
                                                  Drivers/STM32F4xx_StdPeriph_Driver/src/stm32f4xx_usart.o
                                                  Drivers/STM32F4xx_StdPeriph_Driver/src/stm32f4xx_tim.o
                                                  Drivers/STM32F4xx_StdPeriph_Driver/src/stm32f4xx_syscfg.o
                                                  Drivers/STM32F4xx_StdPeriph_Driver/src/stm32f4xx_spi.o
                                                  Drivers/STM32F4xx_StdPeriph_Driver/src/stm32f4xx_sdio.o
                                                  Drivers/STM32F4xx_StdPeriph_Driver/src/stm32f4xx_adc.o
RCC_AdjustHSICalibrationValue                     Drivers/STM32F4xx_StdPeriph_Driver/src/stm32f4xx_rcc.o
RCC_BackupResetCmd                                Drivers/STM32F4xx_StdPeriph_Driver/src/stm32f4xx_rcc.o
RCC_ClearFlag                                     Drivers/STM32F4xx_StdPeriph_Driver/src/stm32f4xx_rcc.o
RCC_ClearITPendingBit                             Drivers/STM32F4xx_StdPeriph_Driver/src/stm32f4xx_rcc.o
RCC_ClockSecuritySystemCmd                        Drivers/STM32F4xx_StdPeriph_Driver/src/stm32f4xx_rcc.o
RCC_DeInit                                        Drivers/STM32F4xx_StdPeriph_Driver/src/stm32f4xx_rcc.o
RCC_GetClocksFreq                                 Drivers/STM32F4xx_StdPeriph_Driver/src/stm32f4xx_rcc.o
                                                  Drivers/STM32F4xx_StdPeriph_Driver/src/stm32f4xx_usart.o
                                                  Drivers/STM32F4xx_StdPeriph_Driver/src/stm32f4xx_i2c.o
RCC_GetFlagStatus                                 Drivers/STM32F4xx_StdPeriph_Driver/src/stm32f4xx_rcc.o
RCC_GetITStatus                                   Drivers/STM32F4xx_StdPeriph_Driver/src/stm32f4xx_rcc.o
RCC_GetSYSCLKSource                               Drivers/STM32F4xx_StdPeriph_Driver/src/stm32f4xx_rcc.o
RCC_HCLKConfig                                    Drivers/STM32F4xx_StdPeriph_Driver/src/stm32f4xx_rcc.o
RCC_HSEConfig                                     Drivers/STM32F4xx_StdPeriph_Driver/src/stm32f4xx_rcc.o
RCC_HSICmd                                        Drivers/STM32F4xx_StdPeriph_Driver/src/stm32f4xx_rcc.o
RCC_I2SCLKConfig                                  Drivers/STM32F4xx_StdPeriph_Driver/src/stm32f4xx_rcc.o
RCC_IRQHandler                                    src/startup_stm32f411xe.o
RCC_ITConfig                                      Drivers/STM32F4xx_StdPeriph_Driver/src/stm32f4xx_rcc.o
RCC_LSEConfig                                     Drivers/STM32F4xx_StdPeriph_Driver/src/stm32f4xx_rcc.o
RCC_LSICmd                                        Drivers/STM32F4xx_StdPeriph_Driver/src/stm32f4xx_rcc.o
RCC_MCO1Config                                    Drivers/STM32F4xx_StdPeriph_Driver/src/stm32f4xx_rcc.o
RCC_MCO2Config                                    Drivers/STM32F4xx_StdPeriph_Driver/src/stm32f4xx_rcc.o
RCC_PCLK1Config                                   Drivers/STM32F4xx_StdPeriph_Driver/src/stm32f4xx_rcc.o
RCC_PCLK2Config                                   Drivers/STM32F4xx_StdPeriph_Driver/src/stm32f4xx_rcc.o
RCC_PLLCmd                                        Drivers/STM32F4xx_StdPeriph_Driver/src/stm32f4xx_rcc.o
RCC_PLLConfig                                     Drivers/STM32F4xx_StdPeriph_Driver/src/stm32f4xx_rcc.o
RCC_PLLI2SCmd                                     Drivers/STM32F4xx_StdPeriph_Driver/src/stm32f4xx_rcc.o
RCC_PLLI2SConfig                                  Drivers/STM32F4xx_StdPeriph_Driver/src/stm32f4xx_rcc.o
RCC_RTCCLKCmd                                     Drivers/STM32F4xx_StdPeriph_Driver/src/stm32f4xx_rcc.o
RCC_RTCCLKConfig                                  Drivers/STM32F4xx_StdPeriph_Driver/src/stm32f4xx_rcc.o
RCC_SYSCLKConfig                                  Drivers/STM32F4xx_StdPeriph_Driver/src/stm32f4xx_rcc.o
RCC_TIMCLKPresConfig                              Drivers/STM32F4xx_StdPeriph_Driver/src/stm32f4xx_rcc.o
RCC_WaitForHSEStartUp                             Drivers/STM32F4xx_StdPeriph_Driver/src/stm32f4xx_rcc.o
RNG_ClearFlag                                     Drivers/STM32F4xx_StdPeriph_Driver/src/stm32f4xx_rng.o
RNG_ClearITPendingBit                             Drivers/STM32F4xx_StdPeriph_Driver/src/stm32f4xx_rng.o
RNG_Cmd                                           Drivers/STM32F4xx_StdPeriph_Driver/src/stm32f4xx_rng.o
RNG_DeInit                                        Drivers/STM32F4xx_StdPeriph_Driver/src/stm32f4xx_rng.o
RNG_GetFlagStatus                                 Drivers/STM32F4xx_StdPeriph_Driver/src/stm32f4xx_rng.o
RNG_GetITStatus                                   Drivers/STM32F4xx_StdPeriph_Driver/src/stm32f4xx_rng.o
RNG_GetRandomNumber                               Drivers/STM32F4xx_StdPeriph_Driver/src/stm32f4xx_rng.o
RNG_ITConfig                                      Drivers/STM32F4xx_StdPeriph_Driver/src/stm32f4xx_rng.o
RTC_AlarmCmd                                      Drivers/STM32F4xx_StdPeriph_Driver/src/stm32f4xx_rtc.o
RTC_AlarmStructInit                               Drivers/STM32F4xx_StdPeriph_Driver/src/stm32f4xx_rtc.o
RTC_AlarmSubSecondConfig                          Drivers/STM32F4xx_StdPeriph_Driver/src/stm32f4xx_rtc.o
RTC_Alarm_IRQHandler                              src/startup_stm32f411xe.o
RTC_BypassShadowCmd                               Drivers/STM32F4xx_StdPeriph_Driver/src/stm32f4xx_rtc.o
RTC_CalibOutputCmd                                Drivers/STM32F4xx_StdPeriph_Driver/src/stm32f4xx_rtc.o
RTC_CalibOutputConfig                             Drivers/STM32F4xx_StdPeriph_Driver/src/stm32f4xx_rtc.o
RTC_ClearFlag                                     Drivers/STM32F4xx_StdPeriph_Driver/src/stm32f4xx_rtc.o
RTC_ClearITPendingBit                             Drivers/STM32F4xx_StdPeriph_Driver/src/stm32f4xx_rtc.o
RTC_CoarseCalibCmd                                Drivers/STM32F4xx_StdPeriph_Driver/src/stm32f4xx_rtc.o
RTC_CoarseCalibConfig                             Drivers/STM32F4xx_StdPeriph_Driver/src/stm32f4xx_rtc.o
RTC_DateStructInit                                Drivers/STM32F4xx_StdPeriph_Driver/src/stm32f4xx_rtc.o
RTC_DayLightSavingConfig                          Drivers/STM32F4xx_StdPeriph_Driver/src/stm32f4xx_rtc.o
RTC_DeInit                                        Drivers/STM32F4xx_StdPeriph_Driver/src/stm32f4xx_rtc.o
RTC_EnterInitMode                                 Drivers/STM32F4xx_StdPeriph_Driver/src/stm32f4xx_rtc.o
RTC_ExitInitMode                                  Drivers/STM32F4xx_StdPeriph_Driver/src/stm32f4xx_rtc.o
RTC_GetAlarm                                      Drivers/STM32F4xx_StdPeriph_Driver/src/stm32f4xx_rtc.o
RTC_GetAlarmSubSecond                             Drivers/STM32F4xx_StdPeriph_Driver/src/stm32f4xx_rtc.o
RTC_GetDate                                       Drivers/STM32F4xx_StdPeriph_Driver/src/stm32f4xx_rtc.o
RTC_GetFlagStatus                                 Drivers/STM32F4xx_StdPeriph_Driver/src/stm32f4xx_rtc.o
RTC_GetITStatus                                   Drivers/STM32F4xx_StdPeriph_Driver/src/stm32f4xx_rtc.o
RTC_GetStoreOperation                             Drivers/STM32F4xx_StdPeriph_Driver/src/stm32f4xx_rtc.o
RTC_GetSubSecond                                  Drivers/STM32F4xx_StdPeriph_Driver/src/stm32f4xx_rtc.o
RTC_GetTime                                       Drivers/STM32F4xx_StdPeriph_Driver/src/stm32f4xx_rtc.o
RTC_GetTimeStamp                                  Drivers/STM32F4xx_StdPeriph_Driver/src/stm32f4xx_rtc.o
RTC_GetTimeStampSubSecond                         Drivers/STM32F4xx_StdPeriph_Driver/src/stm32f4xx_rtc.o
RTC_GetWakeUpCounter                              Drivers/STM32F4xx_StdPeriph_Driver/src/stm32f4xx_rtc.o
RTC_ITConfig                                      Drivers/STM32F4xx_StdPeriph_Driver/src/stm32f4xx_rtc.o
RTC_Init                                          Drivers/STM32F4xx_StdPeriph_Driver/src/stm32f4xx_rtc.o
RTC_OutputConfig                                  Drivers/STM32F4xx_StdPeriph_Driver/src/stm32f4xx_rtc.o
RTC_OutputTypeConfig                              Drivers/STM32F4xx_StdPeriph_Driver/src/stm32f4xx_rtc.o
RTC_ReadBackupRegister                            Drivers/STM32F4xx_StdPeriph_Driver/src/stm32f4xx_rtc.o
RTC_RefClockCmd                                   Drivers/STM32F4xx_StdPeriph_Driver/src/stm32f4xx_rtc.o
RTC_SetAlarm                                      Drivers/STM32F4xx_StdPeriph_Driver/src/stm32f4xx_rtc.o
RTC_SetDate                                       Drivers/STM32F4xx_StdPeriph_Driver/src/stm32f4xx_rtc.o
RTC_SetTime                                       Drivers/STM32F4xx_StdPeriph_Driver/src/stm32f4xx_rtc.o
RTC_SetWakeUpCounter                              Drivers/STM32F4xx_StdPeriph_Driver/src/stm32f4xx_rtc.o
RTC_SmoothCalibConfig                             Drivers/STM32F4xx_StdPeriph_Driver/src/stm32f4xx_rtc.o
RTC_StructInit                                    Drivers/STM32F4xx_StdPeriph_Driver/src/stm32f4xx_rtc.o
RTC_SynchroShiftConfig                            Drivers/STM32F4xx_StdPeriph_Driver/src/stm32f4xx_rtc.o
RTC_TamperCmd                                     Drivers/STM32F4xx_StdPeriph_Driver/src/stm32f4xx_rtc.o
RTC_TamperFilterConfig                            Drivers/STM32F4xx_StdPeriph_Driver/src/stm32f4xx_rtc.o
RTC_TamperPinSelection                            Drivers/STM32F4xx_StdPeriph_Driver/src/stm32f4xx_rtc.o
RTC_TamperPinsPrechargeDuration                   Drivers/STM32F4xx_StdPeriph_Driver/src/stm32f4xx_rtc.o
RTC_TamperPullUpCmd                               Drivers/STM32F4xx_StdPeriph_Driver/src/stm32f4xx_rtc.o
RTC_TamperSamplingFreqConfig                      Drivers/STM32F4xx_StdPeriph_Driver/src/stm32f4xx_rtc.o
RTC_TamperTriggerConfig                           Drivers/STM32F4xx_StdPeriph_Driver/src/stm32f4xx_rtc.o
RTC_TimeStampCmd                                  Drivers/STM32F4xx_StdPeriph_Driver/src/stm32f4xx_rtc.o
RTC_TimeStampOnTamperDetectionCmd                 Drivers/STM32F4xx_StdPeriph_Driver/src/stm32f4xx_rtc.o
RTC_TimeStampPinSelection                         Drivers/STM32F4xx_StdPeriph_Driver/src/stm32f4xx_rtc.o
RTC_TimeStructInit                                Drivers/STM32F4xx_StdPeriph_Driver/src/stm32f4xx_rtc.o
RTC_WKUP_IRQHandler                               src/startup_stm32f411xe.o
RTC_WaitForSynchro                                Drivers/STM32F4xx_StdPeriph_Driver/src/stm32f4xx_rtc.o
RTC_WakeUpClockConfig                             Drivers/STM32F4xx_StdPeriph_Driver/src/stm32f4xx_rtc.o
RTC_WakeUpCmd                                     Drivers/STM32F4xx_StdPeriph_Driver/src/stm32f4xx_rtc.o
RTC_WriteBackupRegister                           Drivers/STM32F4xx_StdPeriph_Driver/src/stm32f4xx_rtc.o
RTC_WriteProtectionCmd                            Drivers/STM32F4xx_StdPeriph_Driver/src/stm32f4xx_rtc.o
Reset_Handler                                     src/startup_stm32f411xe.o
SDIO_CEATAITCmd                                   Drivers/STM32F4xx_StdPeriph_Driver/src/stm32f4xx_sdio.o
SDIO_ClearFlag                                    Drivers/STM32F4xx_StdPeriph_Driver/src/stm32f4xx_sdio.o
SDIO_ClearITPendingBit                            Drivers/STM32F4xx_StdPeriph_Driver/src/stm32f4xx_sdio.o
SDIO_ClockCmd                                     Drivers/STM32F4xx_StdPeriph_Driver/src/stm32f4xx_sdio.o
SDIO_CmdStructInit                                Drivers/STM32F4xx_StdPeriph_Driver/src/stm32f4xx_sdio.o
SDIO_CommandCompletionCmd                         Drivers/STM32F4xx_StdPeriph_Driver/src/stm32f4xx_sdio.o
SDIO_DMACmd                                       Drivers/STM32F4xx_StdPeriph_Driver/src/stm32f4xx_sdio.o
SDIO_DataConfig                                   Drivers/STM32F4xx_StdPeriph_Driver/src/stm32f4xx_sdio.o
SDIO_DataStructInit                               Drivers/STM32F4xx_StdPeriph_Driver/src/stm32f4xx_sdio.o
SDIO_DeInit                                       Drivers/STM32F4xx_StdPeriph_Driver/src/stm32f4xx_sdio.o
SDIO_GetCommandResponse                           Drivers/STM32F4xx_StdPeriph_Driver/src/stm32f4xx_sdio.o
SDIO_GetDataCounter                               Drivers/STM32F4xx_StdPeriph_Driver/src/stm32f4xx_sdio.o
SDIO_GetFIFOCount                                 Drivers/STM32F4xx_StdPeriph_Driver/src/stm32f4xx_sdio.o
SDIO_GetFlagStatus                                Drivers/STM32F4xx_StdPeriph_Driver/src/stm32f4xx_sdio.o
SDIO_GetITStatus                                  Drivers/STM32F4xx_StdPeriph_Driver/src/stm32f4xx_sdio.o
SDIO_GetPowerState                                Drivers/STM32F4xx_StdPeriph_Driver/src/stm32f4xx_sdio.o
SDIO_GetResponse                                  Drivers/STM32F4xx_StdPeriph_Driver/src/stm32f4xx_sdio.o
SDIO_IRQHandler                                   src/startup_stm32f411xe.o
SDIO_ITConfig                                     Drivers/STM32F4xx_StdPeriph_Driver/src/stm32f4xx_sdio.o
SDIO_Init                                         Drivers/STM32F4xx_StdPeriph_Driver/src/stm32f4xx_sdio.o
SDIO_ReadData                                     Drivers/STM32F4xx_StdPeriph_Driver/src/stm32f4xx_sdio.o
SDIO_SendCEATACmd                                 Drivers/STM32F4xx_StdPeriph_Driver/src/stm32f4xx_sdio.o
SDIO_SendCommand                                  Drivers/STM32F4xx_StdPeriph_Driver/src/stm32f4xx_sdio.o
SDIO_SendSDIOSuspendCmd                           Drivers/STM32F4xx_StdPeriph_Driver/src/stm32f4xx_sdio.o
SDIO_SetPowerState                                Drivers/STM32F4xx_StdPeriph_Driver/src/stm32f4xx_sdio.o
SDIO_SetSDIOOperation                             Drivers/STM32F4xx_StdPeriph_Driver/src/stm32f4xx_sdio.o
SDIO_SetSDIOReadWaitMode                          Drivers/STM32F4xx_StdPeriph_Driver/src/stm32f4xx_sdio.o
SDIO_StartSDIOReadWait                            Drivers/STM32F4xx_StdPeriph_Driver/src/stm32f4xx_sdio.o
SDIO_StopSDIOReadWait                             Drivers/STM32F4xx_StdPeriph_Driver/src/stm32f4xx_sdio.o
SDIO_StructInit                                   Drivers/STM32F4xx_StdPeriph_Driver/src/stm32f4xx_sdio.o
SDIO_WriteData                                    Drivers/STM32F4xx_StdPeriph_Driver/src/stm32f4xx_sdio.o
SPI1_IRQHandler                                   src/startup_stm32f411xe.o
SPI2_IRQHandler                                   src/startup_stm32f411xe.o
SPI3_IRQHandler                                   src/startup_stm32f411xe.o
SPI4_IRQHandler                                   src/startup_stm32f411xe.o
SPI5_IRQHandler                                   src/startup_stm32f411xe.o
SPI_BiDirectionalLineConfig                       Drivers/STM32F4xx_StdPeriph_Driver/src/stm32f4xx_spi.o
SPI_CalculateCRC                                  Drivers/STM32F4xx_StdPeriph_Driver/src/stm32f4xx_spi.o
SPI_Cmd                                           Drivers/STM32F4xx_StdPeriph_Driver/src/stm32f4xx_spi.o
SPI_DataSizeConfig                                Drivers/STM32F4xx_StdPeriph_Driver/src/stm32f4xx_spi.o
SPI_GetCRC                                        Drivers/STM32F4xx_StdPeriph_Driver/src/stm32f4xx_spi.o
SPI_GetCRCPolynomial                              Drivers/STM32F4xx_StdPeriph_Driver/src/stm32f4xx_spi.o
SPI_I2S_ClearFlag                                 Drivers/STM32F4xx_StdPeriph_Driver/src/stm32f4xx_spi.o
SPI_I2S_ClearITPendingBit                         Drivers/STM32F4xx_StdPeriph_Driver/src/stm32f4xx_spi.o
SPI_I2S_DMACmd                                    Drivers/STM32F4xx_StdPeriph_Driver/src/stm32f4xx_spi.o
SPI_I2S_DeInit                                    Drivers/STM32F4xx_StdPeriph_Driver/src/stm32f4xx_spi.o
SPI_I2S_GetFlagStatus                             Drivers/STM32F4xx_StdPeriph_Driver/src/stm32f4xx_spi.o
SPI_I2S_GetITStatus                               Drivers/STM32F4xx_StdPeriph_Driver/src/stm32f4xx_spi.o
SPI_I2S_ITConfig                                  Drivers/STM32F4xx_StdPeriph_Driver/src/stm32f4xx_spi.o
SPI_I2S_ReceiveData                               Drivers/STM32F4xx_StdPeriph_Driver/src/stm32f4xx_spi.o
SPI_I2S_SendData                                  Drivers/STM32F4xx_StdPeriph_Driver/src/stm32f4xx_spi.o
SPI_Init                                          Drivers/STM32F4xx_StdPeriph_Driver/src/stm32f4xx_spi.o
SPI_NSSInternalSoftwareConfig                     Drivers/STM32F4xx_StdPeriph_Driver/src/stm32f4xx_spi.o
SPI_SSOutputCmd                                   Drivers/STM32F4xx_StdPeriph_Driver/src/stm32f4xx_spi.o
SPI_StructInit                                    Drivers/STM32F4xx_StdPeriph_Driver/src/stm32f4xx_spi.o
SPI_TIModeCmd                                     Drivers/STM32F4xx_StdPeriph_Driver/src/stm32f4xx_spi.o
SPI_TransmitCRC                                   Drivers/STM32F4xx_StdPeriph_Driver/src/stm32f4xx_spi.o
SVC_Handler                                       src/stm32f4xx_it.o
                                                  src/startup_stm32f411xe.o
SYSCFG_CompensationCellCmd                        Drivers/STM32F4xx_StdPeriph_Driver/src/stm32f4xx_syscfg.o
SYSCFG_DeInit                                     Drivers/STM32F4xx_StdPeriph_Driver/src/stm32f4xx_syscfg.o
SYSCFG_ETH_MediaInterfaceConfig                   Drivers/STM32F4xx_StdPeriph_Driver/src/stm32f4xx_syscfg.o
SYSCFG_EXTILineConfig                             Drivers/STM32F4xx_StdPeriph_Driver/src/stm32f4xx_syscfg.o
                                                  src/main.o
SYSCFG_GetCompensationCellStatus                  Drivers/STM32F4xx_StdPeriph_Driver/src/stm32f4xx_syscfg.o
SYSCFG_MemoryRemapConfig                          Drivers/STM32F4xx_StdPeriph_Driver/src/stm32f4xx_syscfg.o
SysTick_CLKSourceConfig                           Drivers/STM32F4xx_StdPeriph_Driver/src/misc.o
SysTick_Handler                                   src/stm32f4xx_it.o
                                                  src/startup_stm32f411xe.o
SystemCoreClock                                   src/system_stm32f4xx.o
                                                  src/main.o
SystemCoreClockUpdate                             src/system_stm32f4xx.o
SystemInit                                        src/system_stm32f4xx.o
                                                  src/startup_stm32f411xe.o
TAMP_STAMP_IRQHandler                             src/startup_stm32f411xe.o
TIM1_BRK_TIM9_IRQHandler                          src/startup_stm32f411xe.o
TIM1_CC_IRQHandler                                src/startup_stm32f411xe.o
TIM1_TRG_COM_TIM11_IRQHandler                     src/startup_stm32f411xe.o
TIM1_UP_TIM10_IRQHandler                          src/startup_stm32f411xe.o
TIM2_IRQHandler                                   src/startup_stm32f411xe.o
TIM3_IRQHandler                                   src/startup_stm32f411xe.o
TIM4_IRQHandler                                   src/startup_stm32f411xe.o
TIM5_IRQHandler                                   src/startup_stm32f411xe.o
TIM_ARRPreloadConfig                              Drivers/STM32F4xx_StdPeriph_Driver/src/stm32f4xx_tim.o
TIM_BDTRConfig                                    Drivers/STM32F4xx_StdPeriph_Driver/src/stm32f4xx_tim.o
TIM_BDTRStructInit                                Drivers/STM32F4xx_StdPeriph_Driver/src/stm32f4xx_tim.o
TIM_CCPreloadControl                              Drivers/STM32F4xx_StdPeriph_Driver/src/stm32f4xx_tim.o
TIM_CCxCmd                                        Drivers/STM32F4xx_StdPeriph_Driver/src/stm32f4xx_tim.o
TIM_CCxNCmd                                       Drivers/STM32F4xx_StdPeriph_Driver/src/stm32f4xx_tim.o
TIM_ClearFlag                                     Drivers/STM32F4xx_StdPeriph_Driver/src/stm32f4xx_tim.o
TIM_ClearITPendingBit                             Drivers/STM32F4xx_StdPeriph_Driver/src/stm32f4xx_tim.o
TIM_ClearOC1Ref                                   Drivers/STM32F4xx_StdPeriph_Driver/src/stm32f4xx_tim.o
TIM_ClearOC2Ref                                   Drivers/STM32F4xx_StdPeriph_Driver/src/stm32f4xx_tim.o
TIM_ClearOC3Ref                                   Drivers/STM32F4xx_StdPeriph_Driver/src/stm32f4xx_tim.o
TIM_ClearOC4Ref                                   Drivers/STM32F4xx_StdPeriph_Driver/src/stm32f4xx_tim.o
TIM_Cmd                                           Drivers/STM32F4xx_StdPeriph_Driver/src/stm32f4xx_tim.o
TIM_CounterModeConfig                             Drivers/STM32F4xx_StdPeriph_Driver/src/stm32f4xx_tim.o
TIM_CtrlPWMOutputs                                Drivers/STM32F4xx_StdPeriph_Driver/src/stm32f4xx_tim.o
TIM_DMACmd                                        Drivers/STM32F4xx_StdPeriph_Driver/src/stm32f4xx_tim.o
TIM_DMAConfig                                     Drivers/STM32F4xx_StdPeriph_Driver/src/stm32f4xx_tim.o
TIM_DeInit                                        Drivers/STM32F4xx_StdPeriph_Driver/src/stm32f4xx_tim.o
TIM_ETRClockMode1Config                           Drivers/STM32F4xx_StdPeriph_Driver/src/stm32f4xx_tim.o
TIM_ETRClockMode2Config                           Drivers/STM32F4xx_StdPeriph_Driver/src/stm32f4xx_tim.o
TIM_ETRConfig                                     Drivers/STM32F4xx_StdPeriph_Driver/src/stm32f4xx_tim.o
TIM_EncoderInterfaceConfig                        Drivers/STM32F4xx_StdPeriph_Driver/src/stm32f4xx_tim.o
TIM_ForcedOC1Config                               Drivers/STM32F4xx_StdPeriph_Driver/src/stm32f4xx_tim.o
TIM_ForcedOC2Config                               Drivers/STM32F4xx_StdPeriph_Driver/src/stm32f4xx_tim.o
TIM_ForcedOC3Config                               Drivers/STM32F4xx_StdPeriph_Driver/src/stm32f4xx_tim.o
TIM_ForcedOC4Config                               Drivers/STM32F4xx_StdPeriph_Driver/src/stm32f4xx_tim.o
TIM_GenerateEvent                                 Drivers/STM32F4xx_StdPeriph_Driver/src/stm32f4xx_tim.o
TIM_GetCapture1                                   Drivers/STM32F4xx_StdPeriph_Driver/src/stm32f4xx_tim.o
TIM_GetCapture2                                   Drivers/STM32F4xx_StdPeriph_Driver/src/stm32f4xx_tim.o
TIM_GetCapture3                                   Drivers/STM32F4xx_StdPeriph_Driver/src/stm32f4xx_tim.o
TIM_GetCapture4                                   Drivers/STM32F4xx_StdPeriph_Driver/src/stm32f4xx_tim.o
TIM_GetCounter                                    Drivers/STM32F4xx_StdPeriph_Driver/src/stm32f4xx_tim.o
TIM_GetFlagStatus                                 Drivers/STM32F4xx_StdPeriph_Driver/src/stm32f4xx_tim.o
TIM_GetITStatus                                   Drivers/STM32F4xx_StdPeriph_Driver/src/stm32f4xx_tim.o
TIM_GetPrescaler                                  Drivers/STM32F4xx_StdPeriph_Driver/src/stm32f4xx_tim.o
TIM_ICInit                                        Drivers/STM32F4xx_StdPeriph_Driver/src/stm32f4xx_tim.o
TIM_ICStructInit                                  Drivers/STM32F4xx_StdPeriph_Driver/src/stm32f4xx_tim.o
TIM_ITConfig                                      Drivers/STM32F4xx_StdPeriph_Driver/src/stm32f4xx_tim.o
TIM_ITRxExternalClockConfig                       Drivers/STM32F4xx_StdPeriph_Driver/src/stm32f4xx_tim.o
TIM_InternalClockConfig                           Drivers/STM32F4xx_StdPeriph_Driver/src/stm32f4xx_tim.o
TIM_OC1FastConfig                                 Drivers/STM32F4xx_StdPeriph_Driver/src/stm32f4xx_tim.o
TIM_OC1Init                                       Drivers/STM32F4xx_StdPeriph_Driver/src/stm32f4xx_tim.o
TIM_OC1NPolarityConfig                            Drivers/STM32F4xx_StdPeriph_Driver/src/stm32f4xx_tim.o
TIM_OC1PolarityConfig                             Drivers/STM32F4xx_StdPeriph_Driver/src/stm32f4xx_tim.o
TIM_OC1PreloadConfig                              Drivers/STM32F4xx_StdPeriph_Driver/src/stm32f4xx_tim.o
TIM_OC2FastConfig                                 Drivers/STM32F4xx_StdPeriph_Driver/src/stm32f4xx_tim.o
TIM_OC2Init                                       Drivers/STM32F4xx_StdPeriph_Driver/src/stm32f4xx_tim.o
TIM_OC2NPolarityConfig                            Drivers/STM32F4xx_StdPeriph_Driver/src/stm32f4xx_tim.o
TIM_OC2PolarityConfig                             Drivers/STM32F4xx_StdPeriph_Driver/src/stm32f4xx_tim.o
TIM_OC2PreloadConfig                              Drivers/STM32F4xx_StdPeriph_Driver/src/stm32f4xx_tim.o
TIM_OC3FastConfig                                 Drivers/STM32F4xx_StdPeriph_Driver/src/stm32f4xx_tim.o
TIM_OC3Init                                       Drivers/STM32F4xx_StdPeriph_Driver/src/stm32f4xx_tim.o
TIM_OC3NPolarityConfig                            Drivers/STM32F4xx_StdPeriph_Driver/src/stm32f4xx_tim.o
TIM_OC3PolarityConfig                             Drivers/STM32F4xx_StdPeriph_Driver/src/stm32f4xx_tim.o
TIM_OC3PreloadConfig                              Drivers/STM32F4xx_StdPeriph_Driver/src/stm32f4xx_tim.o
TIM_OC4FastConfig                                 Drivers/STM32F4xx_StdPeriph_Driver/src/stm32f4xx_tim.o
TIM_OC4Init                                       Drivers/STM32F4xx_StdPeriph_Driver/src/stm32f4xx_tim.o
TIM_OC4PolarityConfig                             Drivers/STM32F4xx_StdPeriph_Driver/src/stm32f4xx_tim.o
TIM_OC4PreloadConfig                              Drivers/STM32F4xx_StdPeriph_Driver/src/stm32f4xx_tim.o
TIM_OCStructInit                                  Drivers/STM32F4xx_StdPeriph_Driver/src/stm32f4xx_tim.o
TIM_PWMIConfig                                    Drivers/STM32F4xx_StdPeriph_Driver/src/stm32f4xx_tim.o
TIM_PrescalerConfig                               Drivers/STM32F4xx_StdPeriph_Driver/src/stm32f4xx_tim.o
TIM_RemapConfig                                   Drivers/STM32F4xx_StdPeriph_Driver/src/stm32f4xx_tim.o
TIM_SelectCCDMA                                   Drivers/STM32F4xx_StdPeriph_Driver/src/stm32f4xx_tim.o
TIM_SelectCOM                                     Drivers/STM32F4xx_StdPeriph_Driver/src/stm32f4xx_tim.o
TIM_SelectHallSensor                              Drivers/STM32F4xx_StdPeriph_Driver/src/stm32f4xx_tim.o
TIM_SelectInputTrigger                            Drivers/STM32F4xx_StdPeriph_Driver/src/stm32f4xx_tim.o
TIM_SelectMasterSlaveMode                         Drivers/STM32F4xx_StdPeriph_Driver/src/stm32f4xx_tim.o
TIM_SelectOCxM                                    Drivers/STM32F4xx_StdPeriph_Driver/src/stm32f4xx_tim.o
TIM_SelectOnePulseMode                            Drivers/STM32F4xx_StdPeriph_Driver/src/stm32f4xx_tim.o
TIM_SelectOutputTrigger                           Drivers/STM32F4xx_StdPeriph_Driver/src/stm32f4xx_tim.o
TIM_SelectSlaveMode                               Drivers/STM32F4xx_StdPeriph_Driver/src/stm32f4xx_tim.o
TIM_SetAutoreload                                 Drivers/STM32F4xx_StdPeriph_Driver/src/stm32f4xx_tim.o
TIM_SetClockDivision                              Drivers/STM32F4xx_StdPeriph_Driver/src/stm32f4xx_tim.o
TIM_SetCompare1                                   Drivers/STM32F4xx_StdPeriph_Driver/src/stm32f4xx_tim.o
TIM_SetCompare2                                   Drivers/STM32F4xx_StdPeriph_Driver/src/stm32f4xx_tim.o
TIM_SetCompare3                                   Drivers/STM32F4xx_StdPeriph_Driver/src/stm32f4xx_tim.o
TIM_SetCompare4                                   Drivers/STM32F4xx_StdPeriph_Driver/src/stm32f4xx_tim.o
TIM_SetCounter                                    Drivers/STM32F4xx_StdPeriph_Driver/src/stm32f4xx_tim.o
TIM_SetIC1Prescaler                               Drivers/STM32F4xx_StdPeriph_Driver/src/stm32f4xx_tim.o
TIM_SetIC2Prescaler                               Drivers/STM32F4xx_StdPeriph_Driver/src/stm32f4xx_tim.o
TIM_SetIC3Prescaler                               Drivers/STM32F4xx_StdPeriph_Driver/src/stm32f4xx_tim.o
TIM_SetIC4Prescaler                               Drivers/STM32F4xx_StdPeriph_Driver/src/stm32f4xx_tim.o
TIM_TIxExternalClockConfig                        Drivers/STM32F4xx_StdPeriph_Driver/src/stm32f4xx_tim.o
TIM_TimeBaseInit                                  Drivers/STM32F4xx_StdPeriph_Driver/src/stm32f4xx_tim.o
TIM_TimeBaseStructInit                            Drivers/STM32F4xx_StdPeriph_Driver/src/stm32f4xx_tim.o
TIM_UpdateDisableConfig                           Drivers/STM32F4xx_StdPeriph_Driver/src/stm32f4xx_tim.o
TIM_UpdateRequestConfig                           Drivers/STM32F4xx_StdPeriph_Driver/src/stm32f4xx_tim.o
TimingDelay                                       src/main.o
TimingDelay_Decrement                             src/main.o
                                                  src/stm32f4xx_it.o
USART1_IRQHandler                                 src/startup_stm32f411xe.o
USART2_IRQHandler                                 src/startup_stm32f411xe.o
USART6_IRQHandler                                 src/startup_stm32f411xe.o
USART_ClearFlag                                   Drivers/STM32F4xx_StdPeriph_Driver/src/stm32f4xx_usart.o
USART_ClearITPendingBit                           Drivers/STM32F4xx_StdPeriph_Driver/src/stm32f4xx_usart.o
USART_ClockInit                                   Drivers/STM32F4xx_StdPeriph_Driver/src/stm32f4xx_usart.o
USART_ClockStructInit                             Drivers/STM32F4xx_StdPeriph_Driver/src/stm32f4xx_usart.o
USART_Cmd                                         Drivers/STM32F4xx_StdPeriph_Driver/src/stm32f4xx_usart.o
USART_DMACmd                                      Drivers/STM32F4xx_StdPeriph_Driver/src/stm32f4xx_usart.o
USART_DeInit                                      Drivers/STM32F4xx_StdPeriph_Driver/src/stm32f4xx_usart.o
USART_GetFlagStatus                               Drivers/STM32F4xx_StdPeriph_Driver/src/stm32f4xx_usart.o
USART_GetITStatus                                 Drivers/STM32F4xx_StdPeriph_Driver/src/stm32f4xx_usart.o
USART_HalfDuplexCmd                               Drivers/STM32F4xx_StdPeriph_Driver/src/stm32f4xx_usart.o
USART_ITConfig                                    Drivers/STM32F4xx_StdPeriph_Driver/src/stm32f4xx_usart.o
USART_Init                                        Drivers/STM32F4xx_StdPeriph_Driver/src/stm32f4xx_usart.o
USART_IrDACmd                                     Drivers/STM32F4xx_StdPeriph_Driver/src/stm32f4xx_usart.o
USART_IrDAConfig                                  Drivers/STM32F4xx_StdPeriph_Driver/src/stm32f4xx_usart.o
USART_LINBreakDetectLengthConfig                  Drivers/STM32F4xx_StdPeriph_Driver/src/stm32f4xx_usart.o
USART_LINCmd                                      Drivers/STM32F4xx_StdPeriph_Driver/src/stm32f4xx_usart.o
USART_OneBitMethodCmd                             Drivers/STM32F4xx_StdPeriph_Driver/src/stm32f4xx_usart.o
USART_OverSampling8Cmd                            Drivers/STM32F4xx_StdPeriph_Driver/src/stm32f4xx_usart.o
USART_ReceiveData                                 Drivers/STM32F4xx_StdPeriph_Driver/src/stm32f4xx_usart.o
USART_ReceiverWakeUpCmd                           Drivers/STM32F4xx_StdPeriph_Driver/src/stm32f4xx_usart.o
USART_SendBreak                                   Drivers/STM32F4xx_StdPeriph_Driver/src/stm32f4xx_usart.o
USART_SendData                                    Drivers/STM32F4xx_StdPeriph_Driver/src/stm32f4xx_usart.o
USART_SetAddress                                  Drivers/STM32F4xx_StdPeriph_Driver/src/stm32f4xx_usart.o
USART_SetGuardTime                                Drivers/STM32F4xx_StdPeriph_Driver/src/stm32f4xx_usart.o
USART_SetPrescaler                                Drivers/STM32F4xx_StdPeriph_Driver/src/stm32f4xx_usart.o
USART_SmartCardCmd                                Drivers/STM32F4xx_StdPeriph_Driver/src/stm32f4xx_usart.o
USART_SmartCardNACKCmd                            Drivers/STM32F4xx_StdPeriph_Driver/src/stm32f4xx_usart.o
USART_StructInit                                  Drivers/STM32F4xx_StdPeriph_Driver/src/stm32f4xx_usart.o
USART_WakeUpConfig                                Drivers/STM32F4xx_StdPeriph_Driver/src/stm32f4xx_usart.o
UsageFault_Handler                                src/stm32f4xx_it.o
                                                  src/startup_stm32f411xe.o
WWDG_ClearFlag                                    Drivers/STM32F4xx_StdPeriph_Driver/src/stm32f4xx_wwdg.o
WWDG_DeInit                                       Drivers/STM32F4xx_StdPeriph_Driver/src/stm32f4xx_wwdg.o
WWDG_Enable                                       Drivers/STM32F4xx_StdPeriph_Driver/src/stm32f4xx_wwdg.o
WWDG_EnableIT                                     Drivers/STM32F4xx_StdPeriph_Driver/src/stm32f4xx_wwdg.o
WWDG_GetFlagStatus                                Drivers/STM32F4xx_StdPeriph_Driver/src/stm32f4xx_wwdg.o
WWDG_IRQHandler                                   src/startup_stm32f411xe.o
WWDG_SetCounter                                   Drivers/STM32F4xx_StdPeriph_Driver/src/stm32f4xx_wwdg.o
WWDG_SetPrescaler                                 Drivers/STM32F4xx_StdPeriph_Driver/src/stm32f4xx_wwdg.o
WWDG_SetWindowValue                               Drivers/STM32F4xx_StdPeriph_Driver/src/stm32f4xx_wwdg.o
__deregister_frame_info                           /opt/Atollic_TrueSTUDIO_for_STM32_x86_64_9.3.0/ARMTools/bin/../lib/gcc/arm-atollic-eabi/6.3.1/armv7e-m/fpu/crtbegin.o
__dso_handle                                      /opt/Atollic_TrueSTUDIO_for_STM32_x86_64_9.3.0/ARMTools/bin/../lib/gcc/arm-atollic-eabi/6.3.1/armv7e-m/fpu/crtbegin.o
__init_array_end                                  /opt/Atollic_TrueSTUDIO_for_STM32_x86_64_9.3.0/ARMTools/bin/../lib/gcc/arm-atollic-eabi/6.3.1/../../../../arm-atollic-eabi/lib/armv7e-m/fpu/libc_nano.a(lib_a-init.o)
__init_array_start                                /opt/Atollic_TrueSTUDIO_for_STM32_x86_64_9.3.0/ARMTools/bin/../lib/gcc/arm-atollic-eabi/6.3.1/../../../../arm-atollic-eabi/lib/armv7e-m/fpu/libc_nano.a(lib_a-init.o)
__libc_init_array                                 /opt/Atollic_TrueSTUDIO_for_STM32_x86_64_9.3.0/ARMTools/bin/../lib/gcc/arm-atollic-eabi/6.3.1/../../../../arm-atollic-eabi/lib/armv7e-m/fpu/libc_nano.a(lib_a-init.o)
                                                  src/startup_stm32f411xe.o
__preinit_array_end                               /opt/Atollic_TrueSTUDIO_for_STM32_x86_64_9.3.0/ARMTools/bin/../lib/gcc/arm-atollic-eabi/6.3.1/../../../../arm-atollic-eabi/lib/armv7e-m/fpu/libc_nano.a(lib_a-init.o)
__preinit_array_start                             /opt/Atollic_TrueSTUDIO_for_STM32_x86_64_9.3.0/ARMTools/bin/../lib/gcc/arm-atollic-eabi/6.3.1/../../../../arm-atollic-eabi/lib/armv7e-m/fpu/libc_nano.a(lib_a-init.o)
__register_frame_info                             /opt/Atollic_TrueSTUDIO_for_STM32_x86_64_9.3.0/ARMTools/bin/../lib/gcc/arm-atollic-eabi/6.3.1/armv7e-m/fpu/crtbegin.o
_ebss                                             src/startup_stm32f411xe.o
_edata                                            src/startup_stm32f411xe.o
_estack                                           src/startup_stm32f411xe.o
_fini                                             /opt/Atollic_TrueSTUDIO_for_STM32_x86_64_9.3.0/ARMTools/bin/../lib/gcc/arm-atollic-eabi/6.3.1/armv7e-m/fpu/crti.o
_init                                             /opt/Atollic_TrueSTUDIO_for_STM32_x86_64_9.3.0/ARMTools/bin/../lib/gcc/arm-atollic-eabi/6.3.1/armv7e-m/fpu/crti.o
                                                  /opt/Atollic_TrueSTUDIO_for_STM32_x86_64_9.3.0/ARMTools/bin/../lib/gcc/arm-atollic-eabi/6.3.1/../../../../arm-atollic-eabi/lib/armv7e-m/fpu/libc_nano.a(lib_a-init.o)
_sbss                                             src/startup_stm32f411xe.o
_sdata                                            src/startup_stm32f411xe.o
_sidata                                           src/startup_stm32f411xe.o
_write                                            /opt/Atollic_TrueSTUDIO_for_STM32_x86_64_9.3.0/ARMTools/bin/../lib/gcc/arm-atollic-eabi/6.3.1/../../../../arm-atollic-eabi/lib/armv7e-m/fpu/libnosys.a(write.o)
                                                  src/tiny_printf.o
errno                                             /opt/Atollic_TrueSTUDIO_for_STM32_x86_64_9.3.0/ARMTools/bin/../lib/gcc/arm-atollic-eabi/6.3.1/../../../../arm-atollic-eabi/lib/armv7e-m/fpu/libnosys.a(errno.o)
                                                  /opt/Atollic_TrueSTUDIO_for_STM32_x86_64_9.3.0/ARMTools/bin/../lib/gcc/arm-atollic-eabi/6.3.1/../../../../arm-atollic-eabi/lib/armv7e-m/fpu/libnosys.a(write.o)
fiprintf                                          src/tiny_printf.o
fprintf                                           src/tiny_printf.o
fputs                                             src/tiny_printf.o
fwrite                                            src/tiny_printf.o
g_pfnVectors                                      src/startup_stm32f411xe.o
gpio_button_handler                               src/main.o
                                                  src/stm32f4xx_it.o
gpio_button_init                                  src/main.o
gpio_init                                         src/main.o
iprintf                                           src/tiny_printf.o
main                                              src/main.o
                                                  src/startup_stm32f411xe.o
printf                                            src/tiny_printf.o
puts                                              src/tiny_printf.o
siprintf                                          src/tiny_printf.o
sprintf                                           src/tiny_printf.o
strlen                                            /opt/Atollic_TrueSTUDIO_for_STM32_x86_64_9.3.0/ARMTools/bin/../lib/gcc/arm-atollic-eabi/6.3.1/../../../../arm-atollic-eabi/lib/armv7e-m/fpu/libc_nano.a(lib_a-strlen.o)
                                                  src/tiny_printf.o
ts_formatlength                                   src/tiny_printf.o
ts_formatstring                                   src/tiny_printf.o
ts_itoa                                           src/tiny_printf.o
